
vuln:     file format elf32-i386
vuln
architecture: i386, flags 0x00000112:
EXEC_P, HAS_SYMS, D_PAGED
start address 0x080486e0

Program Header:
    PHDR off    0x00000034 vaddr 0x08048034 paddr 0x08048034 align 2**2
         filesz 0x00000120 memsz 0x00000120 flags r-x
  INTERP off    0x00000154 vaddr 0x08048154 paddr 0x08048154 align 2**0
         filesz 0x00000013 memsz 0x00000013 flags r--
    LOAD off    0x00000000 vaddr 0x08048000 paddr 0x08048000 align 2**12
         filesz 0x00003f58 memsz 0x00003f58 flags r-x
    LOAD off    0x00004f04 vaddr 0x0804df04 paddr 0x0804df04 align 2**12
         filesz 0x0000015c memsz 0x00000174 flags rw-
 DYNAMIC off    0x00004f14 vaddr 0x0804df14 paddr 0x0804df14 align 2**2
         filesz 0x000000e8 memsz 0x000000e8 flags rw-
    NOTE off    0x00000168 vaddr 0x08048168 paddr 0x08048168 align 2**2
         filesz 0x00000044 memsz 0x00000044 flags r--
EH_FRAME off    0x00003c28 vaddr 0x0804bc28 paddr 0x0804bc28 align 2**2
         filesz 0x0000009c memsz 0x0000009c flags r--
   STACK off    0x00000000 vaddr 0x00000000 paddr 0x00000000 align 2**4
         filesz 0x00000000 memsz 0x00000000 flags rwx
   RELRO off    0x00004f04 vaddr 0x0804df04 paddr 0x0804df04 align 2**0
         filesz 0x000000fc memsz 0x000000fc flags r--

Dynamic Section:
  NEEDED               libc.so.6
  INIT                 0x08048560
  FINI                 0x0804b984
  INIT_ARRAY           0x0804df04
  INIT_ARRAYSZ         0x00000008
  FINI_ARRAY           0x0804df0c
  FINI_ARRAYSZ         0x00000004
  GNU_HASH             0x080481ac
  STRTAB               0x08048358
  SYMTAB               0x080481d8
  STRSZ                0x000000e7
  SYMENT               0x00000010
  DEBUG                0x00000000
  PLTGOT               0x0804e000
  PLTRELSZ             0x00000098
  PLTREL               0x00000011
  JMPREL               0x080484c8
  REL                  0x080484b0
  RELSZ                0x00000018
  RELENT               0x00000008
  VERNEED              0x08048470
  VERNEEDNUM           0x00000001
  VERSYM               0x08048440

Version References:
  required from libc.so.6:
    0x0d696913 0x00 04 GLIBC_2.3
    0x0d696914 0x00 03 GLIBC_2.4
    0x0d696910 0x00 02 GLIBC_2.0

Sections:
Idx Name          Size      VMA       LMA       File off  Algn
  0 .interp       00000013  08048154  08048154  00000154  2**0
                  CONTENTS, ALLOC, LOAD, READONLY, DATA
  1 .note.ABI-tag 00000020  08048168  08048168  00000168  2**2
                  CONTENTS, ALLOC, LOAD, READONLY, DATA
  2 .note.gnu.build-id 00000024  08048188  08048188  00000188  2**2
                  CONTENTS, ALLOC, LOAD, READONLY, DATA
  3 .gnu.hash     0000002c  080481ac  080481ac  000001ac  2**2
                  CONTENTS, ALLOC, LOAD, READONLY, DATA
  4 .dynsym       00000180  080481d8  080481d8  000001d8  2**2
                  CONTENTS, ALLOC, LOAD, READONLY, DATA
  5 .dynstr       000000e7  08048358  08048358  00000358  2**0
                  CONTENTS, ALLOC, LOAD, READONLY, DATA
  6 .gnu.version  00000030  08048440  08048440  00000440  2**1
                  CONTENTS, ALLOC, LOAD, READONLY, DATA
  7 .gnu.version_r 00000040  08048470  08048470  00000470  2**2
                  CONTENTS, ALLOC, LOAD, READONLY, DATA
  8 .rel.dyn      00000018  080484b0  080484b0  000004b0  2**2
                  CONTENTS, ALLOC, LOAD, READONLY, DATA
  9 .rel.plt      00000098  080484c8  080484c8  000004c8  2**2
                  CONTENTS, ALLOC, LOAD, READONLY, DATA
 10 .init         00000023  08048560  08048560  00000560  2**2
                  CONTENTS, ALLOC, LOAD, READONLY, CODE
 11 .plt          00000140  08048590  08048590  00000590  2**4
                  CONTENTS, ALLOC, LOAD, READONLY, CODE
 12 .plt.got      00000008  080486d0  080486d0  000006d0  2**3
                  CONTENTS, ALLOC, LOAD, READONLY, CODE
 13 .text         000032a2  080486e0  080486e0  000006e0  2**4
                  CONTENTS, ALLOC, LOAD, READONLY, CODE
 14 .fini         00000014  0804b984  0804b984  00003984  2**2
                  CONTENTS, ALLOC, LOAD, READONLY, CODE
 15 .rodata       0000028e  0804b998  0804b998  00003998  2**2
                  CONTENTS, ALLOC, LOAD, READONLY, DATA
 16 .eh_frame_hdr 0000009c  0804bc28  0804bc28  00003c28  2**2
                  CONTENTS, ALLOC, LOAD, READONLY, DATA
 17 .eh_frame     00000294  0804bcc4  0804bcc4  00003cc4  2**2
                  CONTENTS, ALLOC, LOAD, READONLY, DATA
 18 .init_array   00000008  0804df04  0804df04  00004f04  2**2
                  CONTENTS, ALLOC, LOAD, DATA
 19 .fini_array   00000004  0804df0c  0804df0c  00004f0c  2**2
                  CONTENTS, ALLOC, LOAD, DATA
 20 .jcr          00000004  0804df10  0804df10  00004f10  2**2
                  CONTENTS, ALLOC, LOAD, DATA
 21 .dynamic      000000e8  0804df14  0804df14  00004f14  2**2
                  CONTENTS, ALLOC, LOAD, DATA
 22 .got          00000004  0804dffc  0804dffc  00004ffc  2**2
                  CONTENTS, ALLOC, LOAD, DATA
 23 .got.plt      00000058  0804e000  0804e000  00005000  2**2
                  CONTENTS, ALLOC, LOAD, DATA
 24 .data         00000008  0804e058  0804e058  00005058  2**2
                  CONTENTS, ALLOC, LOAD, DATA
 25 .bss          00000018  0804e060  0804e060  00005060  2**3
                  ALLOC
 26 .comment      00000034  00000000  00000000  00005060  2**0
                  CONTENTS, READONLY
 27 .debug_aranges 00000040  00000000  00000000  00005094  2**0
                  CONTENTS, READONLY, DEBUGGING
 28 .debug_info   000008b4  00000000  00000000  000050d4  2**0
                  CONTENTS, READONLY, DEBUGGING
 29 .debug_abbrev 000002da  00000000  00000000  00005988  2**0
                  CONTENTS, READONLY, DEBUGGING
 30 .debug_line   000012bf  00000000  00000000  00005c62  2**0
                  CONTENTS, READONLY, DEBUGGING
 31 .debug_str    00000433  00000000  00000000  00006f21  2**0
                  CONTENTS, READONLY, DEBUGGING
SYMBOL TABLE:
08048154 l    d  .interp	00000000              .interp
08048168 l    d  .note.ABI-tag	00000000              .note.ABI-tag
08048188 l    d  .note.gnu.build-id	00000000              .note.gnu.build-id
080481ac l    d  .gnu.hash	00000000              .gnu.hash
080481d8 l    d  .dynsym	00000000              .dynsym
08048358 l    d  .dynstr	00000000              .dynstr
08048440 l    d  .gnu.version	00000000              .gnu.version
08048470 l    d  .gnu.version_r	00000000              .gnu.version_r
080484b0 l    d  .rel.dyn	00000000              .rel.dyn
080484c8 l    d  .rel.plt	00000000              .rel.plt
08048560 l    d  .init	00000000              .init
08048590 l    d  .plt	00000000              .plt
080486d0 l    d  .plt.got	00000000              .plt.got
080486e0 l    d  .text	00000000              .text
0804b984 l    d  .fini	00000000              .fini
0804b998 l    d  .rodata	00000000              .rodata
0804bc28 l    d  .eh_frame_hdr	00000000              .eh_frame_hdr
0804bcc4 l    d  .eh_frame	00000000              .eh_frame
0804df04 l    d  .init_array	00000000              .init_array
0804df0c l    d  .fini_array	00000000              .fini_array
0804df10 l    d  .jcr	00000000              .jcr
0804df14 l    d  .dynamic	00000000              .dynamic
0804dffc l    d  .got	00000000              .got
0804e000 l    d  .got.plt	00000000              .got.plt
0804e058 l    d  .data	00000000              .data
0804e060 l    d  .bss	00000000              .bss
00000000 l    d  .comment	00000000              .comment
00000000 l    d  .debug_aranges	00000000              .debug_aranges
00000000 l    d  .debug_info	00000000              .debug_info
00000000 l    d  .debug_abbrev	00000000              .debug_abbrev
00000000 l    d  .debug_line	00000000              .debug_line
00000000 l    d  .debug_str	00000000              .debug_str
00000000 l    df *ABS*	00000000              crtstuff.c
0804df10 l     O .jcr	00000000              __JCR_LIST__
08048720 l     F .text	00000000              deregister_tm_clones
08048750 l     F .text	00000000              register_tm_clones
08048790 l     F .text	00000000              __do_global_dtors_aux
0804e068 l     O .bss	00000001              completed.7200
0804df0c l     O .fini_array	00000000              __do_global_dtors_aux_fini_array_entry
080487b0 l     F .text	00000000              frame_dummy
0804df04 l     O .init_array	00000000              __frame_dummy_init_array_entry
00000000 l    df *ABS*	00000000              vuln.c
00000000 l    df *ABS*	00000000              my_malloc.c
0804bc1c l     O .rodata	0000000a              __PRETTY_FUNCTION__.2160
0804b8fc l     F .text	0000001e              initheap
00000000 l    df *ABS*	00000000              crtstuff.c
0804bf54 l     O .eh_frame	00000000              __FRAME_END__
0804df10 l     O .jcr	00000000              __JCR_END__
00000000 l    df *ABS*	00000000              
0804df0c l       .init_array	00000000              __init_array_end
0804df14 l     O .dynamic	00000000              _DYNAMIC
0804df04 l       .init_array	00000000              __init_array_start
0804bc28 l       .eh_frame_hdr	00000000              __GNU_EH_FRAME_HDR
0804e000 l     O .got.plt	00000000              _GLOBAL_OFFSET_TABLE_
0804b980 g     F .text	00000002              __libc_csu_fini
0804b747 g     F .text	00000069              my_malloc
00000000       F *UND*	00000000              read@@GLIBC_2.0
00000000  w      *UND*	00000000              _ITM_deregisterTMCloneTable
08048710 g     F .text	00000004              .hidden __x86.get_pc_thunk.bx
0804e058  w      .data	00000000              data_start
0804b6e3 g     F .text	00000041              heap_insert
00000000       F *UND*	00000000              srandom@@GLIBC_2.0
00000000       F *UND*	00000000              printf@@GLIBC_2.0
00000000       F *UND*	00000000              fflush@@GLIBC_2.0
0804e060 g     O .bss	00000004              stderr@@GLIBC_2.0
0804e060 g       .data	00000000              _edata
0804e070 g     O .bss	00000004              max_heap_addr
0804b984 g     F .fini	00000000              _fini
00000000       F *UND*	00000000              __stack_chk_fail@@GLIBC_2.4
0804b696 g     F .text	0000004d              heap_delete
00000000       F *UND*	00000000              perror@@GLIBC_2.0
00000000       F *UND*	00000000              fwrite@@GLIBC_2.0
00000000       F *UND*	00000000              bcopy@@GLIBC_2.0
0804e058 g       .data	00000000              __data_start
00000000  w      *UND*	00000000              __gmon_start__
00000000       F *UND*	00000000              exit@@GLIBC_2.0
0804e05c g     O .data	00000000              .hidden __dso_handle
0804bc00 g     O .rodata	00000004              used_hdr_size
0804b99c g     O .rodata	00000004              _IO_stdin_used
00000000       F *UND*	00000000              mmap@@GLIBC_2.0
0804e06c g     O .bss	00000004              login_attempts
00000000       F *UND*	00000000              __libc_start_main@@GLIBC_2.0
00000000       F *UND*	00000000              fprintf@@GLIBC_2.0
080488a0 g     F .text	000000b7              auth
0804b920 g     F .text	0000005d              __libc_csu_init
0804e078 g       .bss	00000000              _end
080486e0 g     F .text	00000000              _start
0804b998 g     O .rodata	00000004              _fp_hw
0804e074 g     O .bss	00000004              head
08048973 g     F .text	00000148              g
08048abb g     F .text	00002759              padding
0804bbfc g     O .rodata	00000004              free_hdr_size
00000000       F *UND*	00000000              execl@@GLIBC_2.0
0804e064 g     O .bss	00000004              stdout@@GLIBC_2.0
0804e060 g       .bss	00000000              __bss_start
0804b603 g     F .text	00000093              main
0804b214 g     F .text	00000020              ownme
0804b81c g     F .text	000000e0              init_heap
0804b724 g     F .text	00000023              new_heap_block
0804b7b0 g     F .text	0000006c              my_free
00000000       F *UND*	00000000              fputc@@GLIBC_2.0
00000000  w      *UND*	00000000              _Jv_RegisterClasses
0804b234 g     F .text	000003cf              main_loop
00000000       F *UND*	00000000              atoi@@GLIBC_2.0
0804e060 g     O .data	00000000              .hidden __TMC_END__
00000000  w      *UND*	00000000              _ITM_registerTMCloneTable
00000000       F *UND*	00000000              strncmp@@GLIBC_2.0
00000000       F *UND*	00000000              random@@GLIBC_2.0
08048560 g     F .init	00000000              _init
08048957 g     F .text	0000001c              wrauth
080487db g     F .text	000000c5              print_escaped
00000000       F *UND*	00000000              __assert_fail@@GLIBC_2.0
00000000       F *UND*	00000000              __ctype_b_loc@@GLIBC_2.3



Disassembly of section .init:

08048560 <_init>:
 8048560:	53                   	push   %ebx
 8048561:	83 ec 08             	sub    $0x8,%esp
 8048564:	e8 a7 01 00 00       	call   8048710 <__x86.get_pc_thunk.bx>
 8048569:	81 c3 97 5a 00 00    	add    $0x5a97,%ebx
 804856f:	8b 83 fc ff ff ff    	mov    -0x4(%ebx),%eax
 8048575:	85 c0                	test   %eax,%eax
 8048577:	74 05                	je     804857e <_init+0x1e>
 8048579:	e8 52 01 00 00       	call   80486d0 <__ctype_b_loc@plt+0x10>
 804857e:	83 c4 08             	add    $0x8,%esp
 8048581:	5b                   	pop    %ebx
 8048582:	c3                   	ret    

Disassembly of section .plt:

08048590 <read@plt-0x10>:
 8048590:	ff 35 04 e0 04 08    	pushl  0x804e004
 8048596:	ff 25 08 e0 04 08    	jmp    *0x804e008
 804859c:	00 00                	add    %al,(%eax)
	...

080485a0 <read@plt>:
 80485a0:	ff 25 0c e0 04 08    	jmp    *0x804e00c
 80485a6:	68 00 00 00 00       	push   $0x0
 80485ab:	e9 e0 ff ff ff       	jmp    8048590 <_init+0x30>

080485b0 <srandom@plt>:
 80485b0:	ff 25 10 e0 04 08    	jmp    *0x804e010
 80485b6:	68 08 00 00 00       	push   $0x8
 80485bb:	e9 d0 ff ff ff       	jmp    8048590 <_init+0x30>

080485c0 <printf@plt>:
 80485c0:	ff 25 14 e0 04 08    	jmp    *0x804e014
 80485c6:	68 10 00 00 00       	push   $0x10
 80485cb:	e9 c0 ff ff ff       	jmp    8048590 <_init+0x30>

080485d0 <fflush@plt>:
 80485d0:	ff 25 18 e0 04 08    	jmp    *0x804e018
 80485d6:	68 18 00 00 00       	push   $0x18
 80485db:	e9 b0 ff ff ff       	jmp    8048590 <_init+0x30>

080485e0 <__stack_chk_fail@plt>:
 80485e0:	ff 25 1c e0 04 08    	jmp    *0x804e01c
 80485e6:	68 20 00 00 00       	push   $0x20
 80485eb:	e9 a0 ff ff ff       	jmp    8048590 <_init+0x30>

080485f0 <perror@plt>:
 80485f0:	ff 25 20 e0 04 08    	jmp    *0x804e020
 80485f6:	68 28 00 00 00       	push   $0x28
 80485fb:	e9 90 ff ff ff       	jmp    8048590 <_init+0x30>

08048600 <fwrite@plt>:
 8048600:	ff 25 24 e0 04 08    	jmp    *0x804e024
 8048606:	68 30 00 00 00       	push   $0x30
 804860b:	e9 80 ff ff ff       	jmp    8048590 <_init+0x30>

08048610 <bcopy@plt>:
 8048610:	ff 25 28 e0 04 08    	jmp    *0x804e028
 8048616:	68 38 00 00 00       	push   $0x38
 804861b:	e9 70 ff ff ff       	jmp    8048590 <_init+0x30>

08048620 <exit@plt>:
 8048620:	ff 25 2c e0 04 08    	jmp    *0x804e02c
 8048626:	68 40 00 00 00       	push   $0x40
 804862b:	e9 60 ff ff ff       	jmp    8048590 <_init+0x30>

08048630 <mmap@plt>:
 8048630:	ff 25 30 e0 04 08    	jmp    *0x804e030
 8048636:	68 48 00 00 00       	push   $0x48
 804863b:	e9 50 ff ff ff       	jmp    8048590 <_init+0x30>

08048640 <__libc_start_main@plt>:
 8048640:	ff 25 34 e0 04 08    	jmp    *0x804e034
 8048646:	68 50 00 00 00       	push   $0x50
 804864b:	e9 40 ff ff ff       	jmp    8048590 <_init+0x30>

08048650 <fprintf@plt>:
 8048650:	ff 25 38 e0 04 08    	jmp    *0x804e038
 8048656:	68 58 00 00 00       	push   $0x58
 804865b:	e9 30 ff ff ff       	jmp    8048590 <_init+0x30>

08048660 <execl@plt>:
 8048660:	ff 25 3c e0 04 08    	jmp    *0x804e03c
 8048666:	68 60 00 00 00       	push   $0x60
 804866b:	e9 20 ff ff ff       	jmp    8048590 <_init+0x30>

08048670 <fputc@plt>:
 8048670:	ff 25 40 e0 04 08    	jmp    *0x804e040
 8048676:	68 68 00 00 00       	push   $0x68
 804867b:	e9 10 ff ff ff       	jmp    8048590 <_init+0x30>

08048680 <atoi@plt>:
 8048680:	ff 25 44 e0 04 08    	jmp    *0x804e044
 8048686:	68 70 00 00 00       	push   $0x70
 804868b:	e9 00 ff ff ff       	jmp    8048590 <_init+0x30>

08048690 <strncmp@plt>:
 8048690:	ff 25 48 e0 04 08    	jmp    *0x804e048
 8048696:	68 78 00 00 00       	push   $0x78
 804869b:	e9 f0 fe ff ff       	jmp    8048590 <_init+0x30>

080486a0 <random@plt>:
 80486a0:	ff 25 4c e0 04 08    	jmp    *0x804e04c
 80486a6:	68 80 00 00 00       	push   $0x80
 80486ab:	e9 e0 fe ff ff       	jmp    8048590 <_init+0x30>

080486b0 <__assert_fail@plt>:
 80486b0:	ff 25 50 e0 04 08    	jmp    *0x804e050
 80486b6:	68 88 00 00 00       	push   $0x88
 80486bb:	e9 d0 fe ff ff       	jmp    8048590 <_init+0x30>

080486c0 <__ctype_b_loc@plt>:
 80486c0:	ff 25 54 e0 04 08    	jmp    *0x804e054
 80486c6:	68 90 00 00 00       	push   $0x90
 80486cb:	e9 c0 fe ff ff       	jmp    8048590 <_init+0x30>

Disassembly of section .plt.got:

080486d0 <.plt.got>:
 80486d0:	ff 25 fc df 04 08    	jmp    *0x804dffc
 80486d6:	66 90                	xchg   %ax,%ax

Disassembly of section .text:

080486e0 <_start>:
 80486e0:	31 ed                	xor    %ebp,%ebp
 80486e2:	5e                   	pop    %esi
 80486e3:	89 e1                	mov    %esp,%ecx
 80486e5:	83 e4 f0             	and    $0xfffffff0,%esp
 80486e8:	50                   	push   %eax
 80486e9:	54                   	push   %esp
 80486ea:	52                   	push   %edx
 80486eb:	68 80 b9 04 08       	push   $0x804b980
 80486f0:	68 20 b9 04 08       	push   $0x804b920
 80486f5:	51                   	push   %ecx
 80486f6:	56                   	push   %esi
 80486f7:	68 03 b6 04 08       	push   $0x804b603
 80486fc:	e8 3f ff ff ff       	call   8048640 <__libc_start_main@plt>
 8048701:	f4                   	hlt    
 8048702:	66 90                	xchg   %ax,%ax
 8048704:	66 90                	xchg   %ax,%ax
 8048706:	66 90                	xchg   %ax,%ax
 8048708:	66 90                	xchg   %ax,%ax
 804870a:	66 90                	xchg   %ax,%ax
 804870c:	66 90                	xchg   %ax,%ax
 804870e:	66 90                	xchg   %ax,%ax

08048710 <__x86.get_pc_thunk.bx>:
 8048710:	8b 1c 24             	mov    (%esp),%ebx
 8048713:	c3                   	ret    
 8048714:	66 90                	xchg   %ax,%ax
 8048716:	66 90                	xchg   %ax,%ax
 8048718:	66 90                	xchg   %ax,%ax
 804871a:	66 90                	xchg   %ax,%ax
 804871c:	66 90                	xchg   %ax,%ax
 804871e:	66 90                	xchg   %ax,%ax

08048720 <deregister_tm_clones>:
 8048720:	b8 63 e0 04 08       	mov    $0x804e063,%eax
 8048725:	2d 60 e0 04 08       	sub    $0x804e060,%eax
 804872a:	83 f8 06             	cmp    $0x6,%eax
 804872d:	76 1a                	jbe    8048749 <deregister_tm_clones+0x29>
 804872f:	b8 00 00 00 00       	mov    $0x0,%eax
 8048734:	85 c0                	test   %eax,%eax
 8048736:	74 11                	je     8048749 <deregister_tm_clones+0x29>
 8048738:	55                   	push   %ebp
 8048739:	89 e5                	mov    %esp,%ebp
 804873b:	83 ec 14             	sub    $0x14,%esp
 804873e:	68 60 e0 04 08       	push   $0x804e060
 8048743:	ff d0                	call   *%eax
 8048745:	83 c4 10             	add    $0x10,%esp
 8048748:	c9                   	leave  
 8048749:	f3 c3                	repz ret 
 804874b:	90                   	nop
 804874c:	8d 74 26 00          	lea    0x0(%esi,%eiz,1),%esi

08048750 <register_tm_clones>:
 8048750:	b8 60 e0 04 08       	mov    $0x804e060,%eax
 8048755:	2d 60 e0 04 08       	sub    $0x804e060,%eax
 804875a:	c1 f8 02             	sar    $0x2,%eax
 804875d:	89 c2                	mov    %eax,%edx
 804875f:	c1 ea 1f             	shr    $0x1f,%edx
 8048762:	01 d0                	add    %edx,%eax
 8048764:	d1 f8                	sar    %eax
 8048766:	74 1b                	je     8048783 <register_tm_clones+0x33>
 8048768:	ba 00 00 00 00       	mov    $0x0,%edx
 804876d:	85 d2                	test   %edx,%edx
 804876f:	74 12                	je     8048783 <register_tm_clones+0x33>
 8048771:	55                   	push   %ebp
 8048772:	89 e5                	mov    %esp,%ebp
 8048774:	83 ec 10             	sub    $0x10,%esp
 8048777:	50                   	push   %eax
 8048778:	68 60 e0 04 08       	push   $0x804e060
 804877d:	ff d2                	call   *%edx
 804877f:	83 c4 10             	add    $0x10,%esp
 8048782:	c9                   	leave  
 8048783:	f3 c3                	repz ret 
 8048785:	8d 74 26 00          	lea    0x0(%esi,%eiz,1),%esi
 8048789:	8d bc 27 00 00 00 00 	lea    0x0(%edi,%eiz,1),%edi

08048790 <__do_global_dtors_aux>:
 8048790:	80 3d 68 e0 04 08 00 	cmpb   $0x0,0x804e068
 8048797:	75 13                	jne    80487ac <__do_global_dtors_aux+0x1c>
 8048799:	55                   	push   %ebp
 804879a:	89 e5                	mov    %esp,%ebp
 804879c:	83 ec 08             	sub    $0x8,%esp
 804879f:	e8 7c ff ff ff       	call   8048720 <deregister_tm_clones>
 80487a4:	c6 05 68 e0 04 08 01 	movb   $0x1,0x804e068
 80487ab:	c9                   	leave  
 80487ac:	f3 c3                	repz ret 
 80487ae:	66 90                	xchg   %ax,%ax

080487b0 <frame_dummy>:
 80487b0:	b8 10 df 04 08       	mov    $0x804df10,%eax
 80487b5:	8b 10                	mov    (%eax),%edx
 80487b7:	85 d2                	test   %edx,%edx
 80487b9:	75 05                	jne    80487c0 <frame_dummy+0x10>
 80487bb:	eb 93                	jmp    8048750 <register_tm_clones>
 80487bd:	8d 76 00             	lea    0x0(%esi),%esi
 80487c0:	ba 00 00 00 00       	mov    $0x0,%edx
 80487c5:	85 d2                	test   %edx,%edx
 80487c7:	74 f2                	je     80487bb <frame_dummy+0xb>
 80487c9:	55                   	push   %ebp
 80487ca:	89 e5                	mov    %esp,%ebp
 80487cc:	83 ec 14             	sub    $0x14,%esp
 80487cf:	50                   	push   %eax
 80487d0:	ff d2                	call   *%edx
 80487d2:	83 c4 10             	add    $0x10,%esp
 80487d5:	c9                   	leave  
 80487d6:	e9 75 ff ff ff       	jmp    8048750 <register_tm_clones>

080487db <print_escaped>:
 80487db:	55                   	push   %ebp
 80487dc:	89 e5                	mov    %esp,%ebp
 80487de:	83 ec 18             	sub    $0x18,%esp
 80487e1:	c7 45 f4 00 00 00 00 	movl   $0x0,-0xc(%ebp)
 80487e8:	e9 a4 00 00 00       	jmp    8048891 <print_escaped+0xb6>
 80487ed:	e8 ce fe ff ff       	call   80486c0 <__ctype_b_loc@plt>
 80487f2:	8b 00                	mov    (%eax),%eax
 80487f4:	8b 4d f4             	mov    -0xc(%ebp),%ecx
 80487f7:	8b 55 0c             	mov    0xc(%ebp),%edx
 80487fa:	01 ca                	add    %ecx,%edx
 80487fc:	0f b6 12             	movzbl (%edx),%edx
 80487ff:	0f be d2             	movsbl %dl,%edx
 8048802:	01 d2                	add    %edx,%edx
 8048804:	01 d0                	add    %edx,%eax
 8048806:	0f b7 00             	movzwl (%eax),%eax
 8048809:	0f b7 c0             	movzwl %ax,%eax
 804880c:	25 00 40 00 00       	and    $0x4000,%eax
 8048811:	85 c0                	test   %eax,%eax
 8048813:	74 53                	je     8048868 <print_escaped+0x8d>
 8048815:	8b 55 f4             	mov    -0xc(%ebp),%edx
 8048818:	8b 45 0c             	mov    0xc(%ebp),%eax
 804881b:	01 d0                	add    %edx,%eax
 804881d:	0f b6 00             	movzbl (%eax),%eax
 8048820:	3c 5c                	cmp    $0x5c,%al
 8048822:	75 21                	jne    8048845 <print_escaped+0x6a>
 8048824:	8b 15 60 e0 04 08    	mov    0x804e060,%edx
 804882a:	8b 4d f4             	mov    -0xc(%ebp),%ecx
 804882d:	8b 45 0c             	mov    0xc(%ebp),%eax
 8048830:	01 c8                	add    %ecx,%eax
 8048832:	0f b6 00             	movzbl (%eax),%eax
 8048835:	0f be c0             	movsbl %al,%eax
 8048838:	83 ec 08             	sub    $0x8,%esp
 804883b:	52                   	push   %edx
 804883c:	50                   	push   %eax
 804883d:	e8 2e fe ff ff       	call   8048670 <fputc@plt>
 8048842:	83 c4 10             	add    $0x10,%esp
 8048845:	8b 15 60 e0 04 08    	mov    0x804e060,%edx
 804884b:	8b 4d f4             	mov    -0xc(%ebp),%ecx
 804884e:	8b 45 0c             	mov    0xc(%ebp),%eax
 8048851:	01 c8                	add    %ecx,%eax
 8048853:	0f b6 00             	movzbl (%eax),%eax
 8048856:	0f be c0             	movsbl %al,%eax
 8048859:	83 ec 08             	sub    $0x8,%esp
 804885c:	52                   	push   %edx
 804885d:	50                   	push   %eax
 804885e:	e8 0d fe ff ff       	call   8048670 <fputc@plt>
 8048863:	83 c4 10             	add    $0x10,%esp
 8048866:	eb 25                	jmp    804888d <print_escaped+0xb2>
 8048868:	8b 55 f4             	mov    -0xc(%ebp),%edx
 804886b:	8b 45 0c             	mov    0xc(%ebp),%eax
 804886e:	01 d0                	add    %edx,%eax
 8048870:	0f b6 00             	movzbl (%eax),%eax
 8048873:	0f be d0             	movsbl %al,%edx
 8048876:	a1 60 e0 04 08       	mov    0x804e060,%eax
 804887b:	83 ec 04             	sub    $0x4,%esp
 804887e:	52                   	push   %edx
 804887f:	68 a0 b9 04 08       	push   $0x804b9a0
 8048884:	50                   	push   %eax
 8048885:	e8 c6 fd ff ff       	call   8048650 <fprintf@plt>
 804888a:	83 c4 10             	add    $0x10,%esp
 804888d:	83 45 f4 01          	addl   $0x1,-0xc(%ebp)
 8048891:	8b 45 f4             	mov    -0xc(%ebp),%eax
 8048894:	3b 45 10             	cmp    0x10(%ebp),%eax
 8048897:	0f 82 50 ff ff ff    	jb     80487ed <print_escaped+0x12>
 804889d:	90                   	nop
 804889e:	c9                   	leave  
 804889f:	c3                   	ret    

080488a0 <auth>:
 80488a0:	55                   	push   %ebp
 80488a1:	89 e5                	mov    %esp,%ebp
 80488a3:	83 ec 28             	sub    $0x28,%esp
 80488a6:	8b 45 08             	mov    0x8(%ebp),%eax
 80488a9:	89 45 e4             	mov    %eax,-0x1c(%ebp)
 80488ac:	8b 45 10             	mov    0x10(%ebp),%eax
 80488af:	89 45 e0             	mov    %eax,-0x20(%ebp)
 80488b2:	65 a1 14 00 00 00    	mov    %gs:0x14,%eax
 80488b8:	89 45 f4             	mov    %eax,-0xc(%ebp)
 80488bb:	31 c0                	xor    %eax,%eax
 80488bd:	e8 de fd ff ff       	call   80486a0 <random@plt>
 80488c2:	89 c2                	mov    %eax,%edx
 80488c4:	89 d0                	mov    %edx,%eax
 80488c6:	c1 f8 1f             	sar    $0x1f,%eax
 80488c9:	c1 e8 18             	shr    $0x18,%eax
 80488cc:	01 c2                	add    %eax,%edx
 80488ce:	0f b6 d2             	movzbl %dl,%edx
 80488d1:	29 c2                	sub    %eax,%edx
 80488d3:	89 d0                	mov    %edx,%eax
 80488d5:	05 00 01 00 00       	add    $0x100,%eax
 80488da:	8d 50 0f             	lea    0xf(%eax),%edx
 80488dd:	b8 10 00 00 00       	mov    $0x10,%eax
 80488e2:	83 e8 01             	sub    $0x1,%eax
 80488e5:	01 d0                	add    %edx,%eax
 80488e7:	b9 10 00 00 00       	mov    $0x10,%ecx
 80488ec:	ba 00 00 00 00       	mov    $0x0,%edx
 80488f1:	f7 f1                	div    %ecx
 80488f3:	6b c0 10             	imul   $0x10,%eax,%eax
 80488f6:	29 c4                	sub    %eax,%esp
 80488f8:	89 e0                	mov    %esp,%eax
 80488fa:	83 c0 0f             	add    $0xf,%eax
 80488fd:	c1 e8 04             	shr    $0x4,%eax
 8048900:	c1 e0 04             	shl    $0x4,%eax
 8048903:	89 45 ec             	mov    %eax,-0x14(%ebp)
 8048906:	8b 45 0c             	mov    0xc(%ebp),%eax
 8048909:	83 ec 04             	sub    $0x4,%esp
 804890c:	50                   	push   %eax
 804890d:	ff 75 ec             	pushl  -0x14(%ebp)
 8048910:	ff 75 e4             	pushl  -0x1c(%ebp)
 8048913:	e8 f8 fc ff ff       	call   8048610 <bcopy@plt>
 8048918:	83 c4 10             	add    $0x10,%esp
 804891b:	8b 45 14             	mov    0x14(%ebp),%eax
 804891e:	39 45 0c             	cmp    %eax,0xc(%ebp)
 8048921:	0f 4e 45 0c          	cmovle 0xc(%ebp),%eax
 8048925:	89 45 f0             	mov    %eax,-0x10(%ebp)
 8048928:	83 ec 04             	sub    $0x4,%esp
 804892b:	ff 75 f0             	pushl  -0x10(%ebp)
 804892e:	ff 75 e0             	pushl  -0x20(%ebp)
 8048931:	ff 75 ec             	pushl  -0x14(%ebp)
 8048934:	e8 57 fd ff ff       	call   8048690 <strncmp@plt>
 8048939:	83 c4 10             	add    $0x10,%esp
 804893c:	85 c0                	test   %eax,%eax
 804893e:	0f 94 c0             	sete   %al
 8048941:	0f b6 c0             	movzbl %al,%eax
 8048944:	8b 4d f4             	mov    -0xc(%ebp),%ecx
 8048947:	65 33 0d 14 00 00 00 	xor    %gs:0x14,%ecx
 804894e:	74 05                	je     8048955 <auth+0xb5>
 8048950:	e8 8b fc ff ff       	call   80485e0 <__stack_chk_fail@plt>
 8048955:	c9                   	leave  
 8048956:	c3                   	ret    

08048957 <wrauth>:
 8048957:	55                   	push   %ebp
 8048958:	89 e5                	mov    %esp,%ebp
 804895a:	83 ec 08             	sub    $0x8,%esp
 804895d:	ff 75 14             	pushl  0x14(%ebp)
 8048960:	ff 75 10             	pushl  0x10(%ebp)
 8048963:	ff 75 0c             	pushl  0xc(%ebp)
 8048966:	ff 75 08             	pushl  0x8(%ebp)
 8048969:	e8 32 ff ff ff       	call   80488a0 <auth>
 804896e:	83 c4 10             	add    $0x10,%esp
 8048971:	c9                   	leave  
 8048972:	c3                   	ret    

08048973 <g>:
 8048973:	55                   	push   %ebp
 8048974:	89 e5                	mov    %esp,%ebp
 8048976:	83 ec 18             	sub    $0x18,%esp
 8048979:	c7 45 ec 00 00 00 00 	movl   $0x0,-0x14(%ebp)
 8048980:	c7 45 f0 a9 b9 04 08 	movl   $0x804b9a9,-0x10(%ebp)
 8048987:	c7 45 f4 b1 b9 04 08 	movl   $0x804b9b1,-0xc(%ebp)
 804898e:	ff 75 14             	pushl  0x14(%ebp)
 8048991:	ff 75 10             	pushl  0x10(%ebp)
 8048994:	ff 75 0c             	pushl  0xc(%ebp)
 8048997:	ff 75 08             	pushl  0x8(%ebp)
 804899a:	e8 01 ff ff ff       	call   80488a0 <auth>
 804899f:	83 c4 10             	add    $0x10,%esp
 80489a2:	09 45 ec             	or     %eax,-0x14(%ebp)
 80489a5:	83 7d ec 00          	cmpl   $0x0,-0x14(%ebp)
 80489a9:	74 68                	je     8048a13 <g+0xa0>
 80489ab:	a1 60 e0 04 08       	mov    0x804e060,%eax
 80489b0:	50                   	push   %eax
 80489b1:	6a 27                	push   $0x27
 80489b3:	6a 01                	push   $0x1
 80489b5:	68 bc b9 04 08       	push   $0x804b9bc
 80489ba:	e8 41 fc ff ff       	call   8048600 <fwrite@plt>
 80489bf:	83 c4 10             	add    $0x10,%esp
 80489c2:	83 ec 04             	sub    $0x4,%esp
 80489c5:	6a 00                	push   $0x0
 80489c7:	68 e4 b9 04 08       	push   $0x804b9e4
 80489cc:	ff 75 f0             	pushl  -0x10(%ebp)
 80489cf:	e8 8c fc ff ff       	call   8048660 <execl@plt>
 80489d4:	83 c4 10             	add    $0x10,%esp
 80489d7:	85 c0                	test   %eax,%eax
 80489d9:	0f 89 d9 00 00 00    	jns    8048ab8 <g+0x145>
 80489df:	a1 60 e0 04 08       	mov    0x804e060,%eax
 80489e4:	6a 3d                	push   $0x3d
 80489e6:	68 e7 b9 04 08       	push   $0x804b9e7
 80489eb:	68 ee b9 04 08       	push   $0x804b9ee
 80489f0:	50                   	push   %eax
 80489f1:	e8 5a fc ff ff       	call   8048650 <fprintf@plt>
 80489f6:	83 c4 10             	add    $0x10,%esp
 80489f9:	83 ec 0c             	sub    $0xc,%esp
 80489fc:	68 03 ba 04 08       	push   $0x804ba03
 8048a01:	e8 ea fb ff ff       	call   80485f0 <perror@plt>
 8048a06:	83 c4 10             	add    $0x10,%esp
 8048a09:	83 ec 0c             	sub    $0xc,%esp
 8048a0c:	6a 01                	push   $0x1
 8048a0e:	e8 0d fc ff ff       	call   8048620 <exit@plt>
 8048a13:	a1 60 e0 04 08       	mov    0x804e060,%eax
 8048a18:	50                   	push   %eax
 8048a19:	6a 0e                	push   $0xe
 8048a1b:	6a 01                	push   $0x1
 8048a1d:	68 04 ba 04 08       	push   $0x804ba04
 8048a22:	e8 d9 fb ff ff       	call   8048600 <fwrite@plt>
 8048a27:	83 c4 10             	add    $0x10,%esp
 8048a2a:	a1 6c e0 04 08       	mov    0x804e06c,%eax
 8048a2f:	8d 50 01             	lea    0x1(%eax),%edx
 8048a32:	89 15 6c e0 04 08    	mov    %edx,0x804e06c
 8048a38:	83 f8 03             	cmp    $0x3,%eax
 8048a3b:	7e 64                	jle    8048aa1 <g+0x12e>
 8048a3d:	a1 60 e0 04 08       	mov    0x804e060,%eax
 8048a42:	50                   	push   %eax
 8048a43:	6a 15                	push   $0x15
 8048a45:	6a 01                	push   $0x1
 8048a47:	68 13 ba 04 08       	push   $0x804ba13
 8048a4c:	e8 af fb ff ff       	call   8048600 <fwrite@plt>
 8048a51:	83 c4 10             	add    $0x10,%esp
 8048a54:	83 ec 04             	sub    $0x4,%esp
 8048a57:	6a 00                	push   $0x0
 8048a59:	68 29 ba 04 08       	push   $0x804ba29
 8048a5e:	ff 75 f4             	pushl  -0xc(%ebp)
 8048a61:	e8 fa fb ff ff       	call   8048660 <execl@plt>
 8048a66:	83 c4 10             	add    $0x10,%esp
 8048a69:	85 c0                	test   %eax,%eax
 8048a6b:	79 4b                	jns    8048ab8 <g+0x145>
 8048a6d:	a1 60 e0 04 08       	mov    0x804e060,%eax
 8048a72:	6a 43                	push   $0x43
 8048a74:	68 e7 b9 04 08       	push   $0x804b9e7
 8048a79:	68 ee b9 04 08       	push   $0x804b9ee
 8048a7e:	50                   	push   %eax
 8048a7f:	e8 cc fb ff ff       	call   8048650 <fprintf@plt>
 8048a84:	83 c4 10             	add    $0x10,%esp
 8048a87:	83 ec 0c             	sub    $0xc,%esp
 8048a8a:	68 03 ba 04 08       	push   $0x804ba03
 8048a8f:	e8 5c fb ff ff       	call   80485f0 <perror@plt>
 8048a94:	83 c4 10             	add    $0x10,%esp
 8048a97:	83 ec 0c             	sub    $0xc,%esp
 8048a9a:	6a 01                	push   $0x1
 8048a9c:	e8 7f fb ff ff       	call   8048620 <exit@plt>
 8048aa1:	a1 60 e0 04 08       	mov    0x804e060,%eax
 8048aa6:	50                   	push   %eax
 8048aa7:	6a 0a                	push   $0xa
 8048aa9:	6a 01                	push   $0x1
 8048aab:	68 2f ba 04 08       	push   $0x804ba2f
 8048ab0:	e8 4b fb ff ff       	call   8048600 <fwrite@plt>
 8048ab5:	83 c4 10             	add    $0x10,%esp
 8048ab8:	90                   	nop
 8048ab9:	c9                   	leave  
 8048aba:	c3                   	ret    

08048abb <padding>:
 8048abb:	55                   	push   %ebp
 8048abc:	89 e5                	mov    %esp,%ebp
 8048abe:	83 ec 10             	sub    $0x10,%esp
 8048ac1:	c7 45 f8 00 00 00 00 	movl   $0x0,-0x8(%ebp)
 8048ac8:	eb 13                	jmp    8048add <padding+0x22>
 8048aca:	8b 45 f8             	mov    -0x8(%ebp),%eax
 8048acd:	8d 50 01             	lea    0x1(%eax),%edx
 8048ad0:	8b 45 fc             	mov    -0x4(%ebp),%eax
 8048ad3:	0f af c2             	imul   %edx,%eax
 8048ad6:	89 45 fc             	mov    %eax,-0x4(%ebp)
 8048ad9:	83 45 f8 01          	addl   $0x1,-0x8(%ebp)
 8048add:	83 7d f8 09          	cmpl   $0x9,-0x8(%ebp)
 8048ae1:	7e e7                	jle    8048aca <padding+0xf>
 8048ae3:	c7 45 f8 00 00 00 00 	movl   $0x0,-0x8(%ebp)
 8048aea:	eb 13                	jmp    8048aff <padding+0x44>
 8048aec:	8b 45 f8             	mov    -0x8(%ebp),%eax
 8048aef:	8d 50 01             	lea    0x1(%eax),%edx
 8048af2:	8b 45 fc             	mov    -0x4(%ebp),%eax
 8048af5:	0f af c2             	imul   %edx,%eax
 8048af8:	89 45 fc             	mov    %eax,-0x4(%ebp)
 8048afb:	83 45 f8 01          	addl   $0x1,-0x8(%ebp)
 8048aff:	83 7d f8 09          	cmpl   $0x9,-0x8(%ebp)
 8048b03:	7e e7                	jle    8048aec <padding+0x31>
 8048b05:	c7 45 f8 00 00 00 00 	movl   $0x0,-0x8(%ebp)
 8048b0c:	eb 13                	jmp    8048b21 <padding+0x66>
 8048b0e:	8b 45 f8             	mov    -0x8(%ebp),%eax
 8048b11:	8d 50 01             	lea    0x1(%eax),%edx
 8048b14:	8b 45 fc             	mov    -0x4(%ebp),%eax
 8048b17:	0f af c2             	imul   %edx,%eax
 8048b1a:	89 45 fc             	mov    %eax,-0x4(%ebp)
 8048b1d:	83 45 f8 01          	addl   $0x1,-0x8(%ebp)
 8048b21:	83 7d f8 09          	cmpl   $0x9,-0x8(%ebp)
 8048b25:	7e e7                	jle    8048b0e <padding+0x53>
 8048b27:	c7 45 f8 00 00 00 00 	movl   $0x0,-0x8(%ebp)
 8048b2e:	eb 13                	jmp    8048b43 <padding+0x88>
 8048b30:	8b 45 f8             	mov    -0x8(%ebp),%eax
 8048b33:	8d 50 01             	lea    0x1(%eax),%edx
 8048b36:	8b 45 fc             	mov    -0x4(%ebp),%eax
 8048b39:	0f af c2             	imul   %edx,%eax
 8048b3c:	89 45 fc             	mov    %eax,-0x4(%ebp)
 8048b3f:	83 45 f8 01          	addl   $0x1,-0x8(%ebp)
 8048b43:	83 7d f8 09          	cmpl   $0x9,-0x8(%ebp)
 8048b47:	7e e7                	jle    8048b30 <padding+0x75>
 8048b49:	c7 45 f8 00 00 00 00 	movl   $0x0,-0x8(%ebp)
 8048b50:	eb 13                	jmp    8048b65 <padding+0xaa>
 8048b52:	8b 45 f8             	mov    -0x8(%ebp),%eax
 8048b55:	8d 50 01             	lea    0x1(%eax),%edx
 8048b58:	8b 45 fc             	mov    -0x4(%ebp),%eax
 8048b5b:	0f af c2             	imul   %edx,%eax
 8048b5e:	89 45 fc             	mov    %eax,-0x4(%ebp)
 8048b61:	83 45 f8 01          	addl   $0x1,-0x8(%ebp)
 8048b65:	83 7d f8 09          	cmpl   $0x9,-0x8(%ebp)
 8048b69:	7e e7                	jle    8048b52 <padding+0x97>
 8048b6b:	c7 45 f8 00 00 00 00 	movl   $0x0,-0x8(%ebp)
 8048b72:	eb 13                	jmp    8048b87 <padding+0xcc>
 8048b74:	8b 45 f8             	mov    -0x8(%ebp),%eax
 8048b77:	8d 50 01             	lea    0x1(%eax),%edx
 8048b7a:	8b 45 fc             	mov    -0x4(%ebp),%eax
 8048b7d:	0f af c2             	imul   %edx,%eax
 8048b80:	89 45 fc             	mov    %eax,-0x4(%ebp)
 8048b83:	83 45 f8 01          	addl   $0x1,-0x8(%ebp)
 8048b87:	83 7d f8 09          	cmpl   $0x9,-0x8(%ebp)
 8048b8b:	7e e7                	jle    8048b74 <padding+0xb9>
 8048b8d:	c7 45 f8 00 00 00 00 	movl   $0x0,-0x8(%ebp)
 8048b94:	eb 13                	jmp    8048ba9 <padding+0xee>
 8048b96:	8b 45 f8             	mov    -0x8(%ebp),%eax
 8048b99:	8d 50 01             	lea    0x1(%eax),%edx
 8048b9c:	8b 45 fc             	mov    -0x4(%ebp),%eax
 8048b9f:	0f af c2             	imul   %edx,%eax
 8048ba2:	89 45 fc             	mov    %eax,-0x4(%ebp)
 8048ba5:	83 45 f8 01          	addl   $0x1,-0x8(%ebp)
 8048ba9:	83 7d f8 09          	cmpl   $0x9,-0x8(%ebp)
 8048bad:	7e e7                	jle    8048b96 <padding+0xdb>
 8048baf:	c7 45 f8 00 00 00 00 	movl   $0x0,-0x8(%ebp)
 8048bb6:	eb 13                	jmp    8048bcb <padding+0x110>
 8048bb8:	8b 45 f8             	mov    -0x8(%ebp),%eax
 8048bbb:	8d 50 01             	lea    0x1(%eax),%edx
 8048bbe:	8b 45 fc             	mov    -0x4(%ebp),%eax
 8048bc1:	0f af c2             	imul   %edx,%eax
 8048bc4:	89 45 fc             	mov    %eax,-0x4(%ebp)
 8048bc7:	83 45 f8 01          	addl   $0x1,-0x8(%ebp)
 8048bcb:	83 7d f8 09          	cmpl   $0x9,-0x8(%ebp)
 8048bcf:	7e e7                	jle    8048bb8 <padding+0xfd>
 8048bd1:	c7 45 f8 00 00 00 00 	movl   $0x0,-0x8(%ebp)
 8048bd8:	eb 13                	jmp    8048bed <padding+0x132>
 8048bda:	8b 45 f8             	mov    -0x8(%ebp),%eax
 8048bdd:	8d 50 01             	lea    0x1(%eax),%edx
 8048be0:	8b 45 fc             	mov    -0x4(%ebp),%eax
 8048be3:	0f af c2             	imul   %edx,%eax
 8048be6:	89 45 fc             	mov    %eax,-0x4(%ebp)
 8048be9:	83 45 f8 01          	addl   $0x1,-0x8(%ebp)
 8048bed:	83 7d f8 09          	cmpl   $0x9,-0x8(%ebp)
 8048bf1:	7e e7                	jle    8048bda <padding+0x11f>
 8048bf3:	c7 45 f8 00 00 00 00 	movl   $0x0,-0x8(%ebp)
 8048bfa:	eb 13                	jmp    8048c0f <padding+0x154>
 8048bfc:	8b 45 f8             	mov    -0x8(%ebp),%eax
 8048bff:	8d 50 01             	lea    0x1(%eax),%edx
 8048c02:	8b 45 fc             	mov    -0x4(%ebp),%eax
 8048c05:	0f af c2             	imul   %edx,%eax
 8048c08:	89 45 fc             	mov    %eax,-0x4(%ebp)
 8048c0b:	83 45 f8 01          	addl   $0x1,-0x8(%ebp)
 8048c0f:	83 7d f8 09          	cmpl   $0x9,-0x8(%ebp)
 8048c13:	7e e7                	jle    8048bfc <padding+0x141>
 8048c15:	c7 45 f8 00 00 00 00 	movl   $0x0,-0x8(%ebp)
 8048c1c:	eb 13                	jmp    8048c31 <padding+0x176>
 8048c1e:	8b 45 f8             	mov    -0x8(%ebp),%eax
 8048c21:	8d 50 01             	lea    0x1(%eax),%edx
 8048c24:	8b 45 fc             	mov    -0x4(%ebp),%eax
 8048c27:	0f af c2             	imul   %edx,%eax
 8048c2a:	89 45 fc             	mov    %eax,-0x4(%ebp)
 8048c2d:	83 45 f8 01          	addl   $0x1,-0x8(%ebp)
 8048c31:	83 7d f8 09          	cmpl   $0x9,-0x8(%ebp)
 8048c35:	7e e7                	jle    8048c1e <padding+0x163>
 8048c37:	c7 45 f8 00 00 00 00 	movl   $0x0,-0x8(%ebp)
 8048c3e:	eb 13                	jmp    8048c53 <padding+0x198>
 8048c40:	8b 45 f8             	mov    -0x8(%ebp),%eax
 8048c43:	8d 50 01             	lea    0x1(%eax),%edx
 8048c46:	8b 45 fc             	mov    -0x4(%ebp),%eax
 8048c49:	0f af c2             	imul   %edx,%eax
 8048c4c:	89 45 fc             	mov    %eax,-0x4(%ebp)
 8048c4f:	83 45 f8 01          	addl   $0x1,-0x8(%ebp)
 8048c53:	83 7d f8 09          	cmpl   $0x9,-0x8(%ebp)
 8048c57:	7e e7                	jle    8048c40 <padding+0x185>
 8048c59:	c7 45 f8 00 00 00 00 	movl   $0x0,-0x8(%ebp)
 8048c60:	eb 13                	jmp    8048c75 <padding+0x1ba>
 8048c62:	8b 45 f8             	mov    -0x8(%ebp),%eax
 8048c65:	8d 50 01             	lea    0x1(%eax),%edx
 8048c68:	8b 45 fc             	mov    -0x4(%ebp),%eax
 8048c6b:	0f af c2             	imul   %edx,%eax
 8048c6e:	89 45 fc             	mov    %eax,-0x4(%ebp)
 8048c71:	83 45 f8 01          	addl   $0x1,-0x8(%ebp)
 8048c75:	83 7d f8 09          	cmpl   $0x9,-0x8(%ebp)
 8048c79:	7e e7                	jle    8048c62 <padding+0x1a7>
 8048c7b:	c7 45 f8 00 00 00 00 	movl   $0x0,-0x8(%ebp)
 8048c82:	eb 13                	jmp    8048c97 <padding+0x1dc>
 8048c84:	8b 45 f8             	mov    -0x8(%ebp),%eax
 8048c87:	8d 50 01             	lea    0x1(%eax),%edx
 8048c8a:	8b 45 fc             	mov    -0x4(%ebp),%eax
 8048c8d:	0f af c2             	imul   %edx,%eax
 8048c90:	89 45 fc             	mov    %eax,-0x4(%ebp)
 8048c93:	83 45 f8 01          	addl   $0x1,-0x8(%ebp)
 8048c97:	83 7d f8 09          	cmpl   $0x9,-0x8(%ebp)
 8048c9b:	7e e7                	jle    8048c84 <padding+0x1c9>
 8048c9d:	c7 45 f8 00 00 00 00 	movl   $0x0,-0x8(%ebp)
 8048ca4:	eb 13                	jmp    8048cb9 <padding+0x1fe>
 8048ca6:	8b 45 f8             	mov    -0x8(%ebp),%eax
 8048ca9:	8d 50 01             	lea    0x1(%eax),%edx
 8048cac:	8b 45 fc             	mov    -0x4(%ebp),%eax
 8048caf:	0f af c2             	imul   %edx,%eax
 8048cb2:	89 45 fc             	mov    %eax,-0x4(%ebp)
 8048cb5:	83 45 f8 01          	addl   $0x1,-0x8(%ebp)
 8048cb9:	83 7d f8 09          	cmpl   $0x9,-0x8(%ebp)
 8048cbd:	7e e7                	jle    8048ca6 <padding+0x1eb>
 8048cbf:	c7 45 f8 00 00 00 00 	movl   $0x0,-0x8(%ebp)
 8048cc6:	eb 13                	jmp    8048cdb <padding+0x220>
 8048cc8:	8b 45 f8             	mov    -0x8(%ebp),%eax
 8048ccb:	8d 50 01             	lea    0x1(%eax),%edx
 8048cce:	8b 45 fc             	mov    -0x4(%ebp),%eax
 8048cd1:	0f af c2             	imul   %edx,%eax
 8048cd4:	89 45 fc             	mov    %eax,-0x4(%ebp)
 8048cd7:	83 45 f8 01          	addl   $0x1,-0x8(%ebp)
 8048cdb:	83 7d f8 09          	cmpl   $0x9,-0x8(%ebp)
 8048cdf:	7e e7                	jle    8048cc8 <padding+0x20d>
 8048ce1:	c7 45 f8 00 00 00 00 	movl   $0x0,-0x8(%ebp)
 8048ce8:	eb 13                	jmp    8048cfd <padding+0x242>
 8048cea:	8b 45 f8             	mov    -0x8(%ebp),%eax
 8048ced:	8d 50 01             	lea    0x1(%eax),%edx
 8048cf0:	8b 45 fc             	mov    -0x4(%ebp),%eax
 8048cf3:	0f af c2             	imul   %edx,%eax
 8048cf6:	89 45 fc             	mov    %eax,-0x4(%ebp)
 8048cf9:	83 45 f8 01          	addl   $0x1,-0x8(%ebp)
 8048cfd:	83 7d f8 09          	cmpl   $0x9,-0x8(%ebp)
 8048d01:	7e e7                	jle    8048cea <padding+0x22f>
 8048d03:	c7 45 f8 00 00 00 00 	movl   $0x0,-0x8(%ebp)
 8048d0a:	eb 13                	jmp    8048d1f <padding+0x264>
 8048d0c:	8b 45 f8             	mov    -0x8(%ebp),%eax
 8048d0f:	8d 50 01             	lea    0x1(%eax),%edx
 8048d12:	8b 45 fc             	mov    -0x4(%ebp),%eax
 8048d15:	0f af c2             	imul   %edx,%eax
 8048d18:	89 45 fc             	mov    %eax,-0x4(%ebp)
 8048d1b:	83 45 f8 01          	addl   $0x1,-0x8(%ebp)
 8048d1f:	83 7d f8 09          	cmpl   $0x9,-0x8(%ebp)
 8048d23:	7e e7                	jle    8048d0c <padding+0x251>
 8048d25:	c7 45 f8 00 00 00 00 	movl   $0x0,-0x8(%ebp)
 8048d2c:	eb 13                	jmp    8048d41 <padding+0x286>
 8048d2e:	8b 45 f8             	mov    -0x8(%ebp),%eax
 8048d31:	8d 50 01             	lea    0x1(%eax),%edx
 8048d34:	8b 45 fc             	mov    -0x4(%ebp),%eax
 8048d37:	0f af c2             	imul   %edx,%eax
 8048d3a:	89 45 fc             	mov    %eax,-0x4(%ebp)
 8048d3d:	83 45 f8 01          	addl   $0x1,-0x8(%ebp)
 8048d41:	83 7d f8 09          	cmpl   $0x9,-0x8(%ebp)
 8048d45:	7e e7                	jle    8048d2e <padding+0x273>
 8048d47:	c7 45 f8 00 00 00 00 	movl   $0x0,-0x8(%ebp)
 8048d4e:	eb 13                	jmp    8048d63 <padding+0x2a8>
 8048d50:	8b 45 f8             	mov    -0x8(%ebp),%eax
 8048d53:	8d 50 01             	lea    0x1(%eax),%edx
 8048d56:	8b 45 fc             	mov    -0x4(%ebp),%eax
 8048d59:	0f af c2             	imul   %edx,%eax
 8048d5c:	89 45 fc             	mov    %eax,-0x4(%ebp)
 8048d5f:	83 45 f8 01          	addl   $0x1,-0x8(%ebp)
 8048d63:	83 7d f8 09          	cmpl   $0x9,-0x8(%ebp)
 8048d67:	7e e7                	jle    8048d50 <padding+0x295>
 8048d69:	c7 45 f8 00 00 00 00 	movl   $0x0,-0x8(%ebp)
 8048d70:	eb 13                	jmp    8048d85 <padding+0x2ca>
 8048d72:	8b 45 f8             	mov    -0x8(%ebp),%eax
 8048d75:	8d 50 01             	lea    0x1(%eax),%edx
 8048d78:	8b 45 fc             	mov    -0x4(%ebp),%eax
 8048d7b:	0f af c2             	imul   %edx,%eax
 8048d7e:	89 45 fc             	mov    %eax,-0x4(%ebp)
 8048d81:	83 45 f8 01          	addl   $0x1,-0x8(%ebp)
 8048d85:	83 7d f8 09          	cmpl   $0x9,-0x8(%ebp)
 8048d89:	7e e7                	jle    8048d72 <padding+0x2b7>
 8048d8b:	c7 45 f8 00 00 00 00 	movl   $0x0,-0x8(%ebp)
 8048d92:	eb 13                	jmp    8048da7 <padding+0x2ec>
 8048d94:	8b 45 f8             	mov    -0x8(%ebp),%eax
 8048d97:	8d 50 01             	lea    0x1(%eax),%edx
 8048d9a:	8b 45 fc             	mov    -0x4(%ebp),%eax
 8048d9d:	0f af c2             	imul   %edx,%eax
 8048da0:	89 45 fc             	mov    %eax,-0x4(%ebp)
 8048da3:	83 45 f8 01          	addl   $0x1,-0x8(%ebp)
 8048da7:	83 7d f8 09          	cmpl   $0x9,-0x8(%ebp)
 8048dab:	7e e7                	jle    8048d94 <padding+0x2d9>
 8048dad:	c7 45 f8 00 00 00 00 	movl   $0x0,-0x8(%ebp)
 8048db4:	eb 13                	jmp    8048dc9 <padding+0x30e>
 8048db6:	8b 45 f8             	mov    -0x8(%ebp),%eax
 8048db9:	8d 50 01             	lea    0x1(%eax),%edx
 8048dbc:	8b 45 fc             	mov    -0x4(%ebp),%eax
 8048dbf:	0f af c2             	imul   %edx,%eax
 8048dc2:	89 45 fc             	mov    %eax,-0x4(%ebp)
 8048dc5:	83 45 f8 01          	addl   $0x1,-0x8(%ebp)
 8048dc9:	83 7d f8 09          	cmpl   $0x9,-0x8(%ebp)
 8048dcd:	7e e7                	jle    8048db6 <padding+0x2fb>
 8048dcf:	c7 45 f8 00 00 00 00 	movl   $0x0,-0x8(%ebp)
 8048dd6:	eb 13                	jmp    8048deb <padding+0x330>
 8048dd8:	8b 45 f8             	mov    -0x8(%ebp),%eax
 8048ddb:	8d 50 01             	lea    0x1(%eax),%edx
 8048dde:	8b 45 fc             	mov    -0x4(%ebp),%eax
 8048de1:	0f af c2             	imul   %edx,%eax
 8048de4:	89 45 fc             	mov    %eax,-0x4(%ebp)
 8048de7:	83 45 f8 01          	addl   $0x1,-0x8(%ebp)
 8048deb:	83 7d f8 09          	cmpl   $0x9,-0x8(%ebp)
 8048def:	7e e7                	jle    8048dd8 <padding+0x31d>
 8048df1:	c7 45 f8 00 00 00 00 	movl   $0x0,-0x8(%ebp)
 8048df8:	eb 13                	jmp    8048e0d <padding+0x352>
 8048dfa:	8b 45 f8             	mov    -0x8(%ebp),%eax
 8048dfd:	8d 50 01             	lea    0x1(%eax),%edx
 8048e00:	8b 45 fc             	mov    -0x4(%ebp),%eax
 8048e03:	0f af c2             	imul   %edx,%eax
 8048e06:	89 45 fc             	mov    %eax,-0x4(%ebp)
 8048e09:	83 45 f8 01          	addl   $0x1,-0x8(%ebp)
 8048e0d:	83 7d f8 09          	cmpl   $0x9,-0x8(%ebp)
 8048e11:	7e e7                	jle    8048dfa <padding+0x33f>
 8048e13:	c7 45 f8 00 00 00 00 	movl   $0x0,-0x8(%ebp)
 8048e1a:	eb 13                	jmp    8048e2f <padding+0x374>
 8048e1c:	8b 45 f8             	mov    -0x8(%ebp),%eax
 8048e1f:	8d 50 01             	lea    0x1(%eax),%edx
 8048e22:	8b 45 fc             	mov    -0x4(%ebp),%eax
 8048e25:	0f af c2             	imul   %edx,%eax
 8048e28:	89 45 fc             	mov    %eax,-0x4(%ebp)
 8048e2b:	83 45 f8 01          	addl   $0x1,-0x8(%ebp)
 8048e2f:	83 7d f8 09          	cmpl   $0x9,-0x8(%ebp)
 8048e33:	7e e7                	jle    8048e1c <padding+0x361>
 8048e35:	c7 45 f8 00 00 00 00 	movl   $0x0,-0x8(%ebp)
 8048e3c:	eb 13                	jmp    8048e51 <padding+0x396>
 8048e3e:	8b 45 f8             	mov    -0x8(%ebp),%eax
 8048e41:	8d 50 01             	lea    0x1(%eax),%edx
 8048e44:	8b 45 fc             	mov    -0x4(%ebp),%eax
 8048e47:	0f af c2             	imul   %edx,%eax
 8048e4a:	89 45 fc             	mov    %eax,-0x4(%ebp)
 8048e4d:	83 45 f8 01          	addl   $0x1,-0x8(%ebp)
 8048e51:	83 7d f8 09          	cmpl   $0x9,-0x8(%ebp)
 8048e55:	7e e7                	jle    8048e3e <padding+0x383>
 8048e57:	c7 45 f8 00 00 00 00 	movl   $0x0,-0x8(%ebp)
 8048e5e:	eb 13                	jmp    8048e73 <padding+0x3b8>
 8048e60:	8b 45 f8             	mov    -0x8(%ebp),%eax
 8048e63:	8d 50 01             	lea    0x1(%eax),%edx
 8048e66:	8b 45 fc             	mov    -0x4(%ebp),%eax
 8048e69:	0f af c2             	imul   %edx,%eax
 8048e6c:	89 45 fc             	mov    %eax,-0x4(%ebp)
 8048e6f:	83 45 f8 01          	addl   $0x1,-0x8(%ebp)
 8048e73:	83 7d f8 09          	cmpl   $0x9,-0x8(%ebp)
 8048e77:	7e e7                	jle    8048e60 <padding+0x3a5>
 8048e79:	c7 45 f8 00 00 00 00 	movl   $0x0,-0x8(%ebp)
 8048e80:	eb 13                	jmp    8048e95 <padding+0x3da>
 8048e82:	8b 45 f8             	mov    -0x8(%ebp),%eax
 8048e85:	8d 50 01             	lea    0x1(%eax),%edx
 8048e88:	8b 45 fc             	mov    -0x4(%ebp),%eax
 8048e8b:	0f af c2             	imul   %edx,%eax
 8048e8e:	89 45 fc             	mov    %eax,-0x4(%ebp)
 8048e91:	83 45 f8 01          	addl   $0x1,-0x8(%ebp)
 8048e95:	83 7d f8 09          	cmpl   $0x9,-0x8(%ebp)
 8048e99:	7e e7                	jle    8048e82 <padding+0x3c7>
 8048e9b:	c7 45 f8 00 00 00 00 	movl   $0x0,-0x8(%ebp)
 8048ea2:	eb 13                	jmp    8048eb7 <padding+0x3fc>
 8048ea4:	8b 45 f8             	mov    -0x8(%ebp),%eax
 8048ea7:	8d 50 01             	lea    0x1(%eax),%edx
 8048eaa:	8b 45 fc             	mov    -0x4(%ebp),%eax
 8048ead:	0f af c2             	imul   %edx,%eax
 8048eb0:	89 45 fc             	mov    %eax,-0x4(%ebp)
 8048eb3:	83 45 f8 01          	addl   $0x1,-0x8(%ebp)
 8048eb7:	83 7d f8 09          	cmpl   $0x9,-0x8(%ebp)
 8048ebb:	7e e7                	jle    8048ea4 <padding+0x3e9>
 8048ebd:	c7 45 f8 00 00 00 00 	movl   $0x0,-0x8(%ebp)
 8048ec4:	eb 13                	jmp    8048ed9 <padding+0x41e>
 8048ec6:	8b 45 f8             	mov    -0x8(%ebp),%eax
 8048ec9:	8d 50 01             	lea    0x1(%eax),%edx
 8048ecc:	8b 45 fc             	mov    -0x4(%ebp),%eax
 8048ecf:	0f af c2             	imul   %edx,%eax
 8048ed2:	89 45 fc             	mov    %eax,-0x4(%ebp)
 8048ed5:	83 45 f8 01          	addl   $0x1,-0x8(%ebp)
 8048ed9:	83 7d f8 09          	cmpl   $0x9,-0x8(%ebp)
 8048edd:	7e e7                	jle    8048ec6 <padding+0x40b>
 8048edf:	c7 45 f8 00 00 00 00 	movl   $0x0,-0x8(%ebp)
 8048ee6:	eb 13                	jmp    8048efb <padding+0x440>
 8048ee8:	8b 45 f8             	mov    -0x8(%ebp),%eax
 8048eeb:	8d 50 01             	lea    0x1(%eax),%edx
 8048eee:	8b 45 fc             	mov    -0x4(%ebp),%eax
 8048ef1:	0f af c2             	imul   %edx,%eax
 8048ef4:	89 45 fc             	mov    %eax,-0x4(%ebp)
 8048ef7:	83 45 f8 01          	addl   $0x1,-0x8(%ebp)
 8048efb:	83 7d f8 09          	cmpl   $0x9,-0x8(%ebp)
 8048eff:	7e e7                	jle    8048ee8 <padding+0x42d>
 8048f01:	c7 45 f8 00 00 00 00 	movl   $0x0,-0x8(%ebp)
 8048f08:	eb 13                	jmp    8048f1d <padding+0x462>
 8048f0a:	8b 45 f8             	mov    -0x8(%ebp),%eax
 8048f0d:	8d 50 01             	lea    0x1(%eax),%edx
 8048f10:	8b 45 fc             	mov    -0x4(%ebp),%eax
 8048f13:	0f af c2             	imul   %edx,%eax
 8048f16:	89 45 fc             	mov    %eax,-0x4(%ebp)
 8048f19:	83 45 f8 01          	addl   $0x1,-0x8(%ebp)
 8048f1d:	83 7d f8 09          	cmpl   $0x9,-0x8(%ebp)
 8048f21:	7e e7                	jle    8048f0a <padding+0x44f>
 8048f23:	c7 45 f8 00 00 00 00 	movl   $0x0,-0x8(%ebp)
 8048f2a:	eb 13                	jmp    8048f3f <padding+0x484>
 8048f2c:	8b 45 f8             	mov    -0x8(%ebp),%eax
 8048f2f:	8d 50 01             	lea    0x1(%eax),%edx
 8048f32:	8b 45 fc             	mov    -0x4(%ebp),%eax
 8048f35:	0f af c2             	imul   %edx,%eax
 8048f38:	89 45 fc             	mov    %eax,-0x4(%ebp)
 8048f3b:	83 45 f8 01          	addl   $0x1,-0x8(%ebp)
 8048f3f:	83 7d f8 09          	cmpl   $0x9,-0x8(%ebp)
 8048f43:	7e e7                	jle    8048f2c <padding+0x471>
 8048f45:	c7 45 f8 00 00 00 00 	movl   $0x0,-0x8(%ebp)
 8048f4c:	eb 13                	jmp    8048f61 <padding+0x4a6>
 8048f4e:	8b 45 f8             	mov    -0x8(%ebp),%eax
 8048f51:	8d 50 01             	lea    0x1(%eax),%edx
 8048f54:	8b 45 fc             	mov    -0x4(%ebp),%eax
 8048f57:	0f af c2             	imul   %edx,%eax
 8048f5a:	89 45 fc             	mov    %eax,-0x4(%ebp)
 8048f5d:	83 45 f8 01          	addl   $0x1,-0x8(%ebp)
 8048f61:	83 7d f8 09          	cmpl   $0x9,-0x8(%ebp)
 8048f65:	7e e7                	jle    8048f4e <padding+0x493>
 8048f67:	c7 45 f8 00 00 00 00 	movl   $0x0,-0x8(%ebp)
 8048f6e:	eb 13                	jmp    8048f83 <padding+0x4c8>
 8048f70:	8b 45 f8             	mov    -0x8(%ebp),%eax
 8048f73:	8d 50 01             	lea    0x1(%eax),%edx
 8048f76:	8b 45 fc             	mov    -0x4(%ebp),%eax
 8048f79:	0f af c2             	imul   %edx,%eax
 8048f7c:	89 45 fc             	mov    %eax,-0x4(%ebp)
 8048f7f:	83 45 f8 01          	addl   $0x1,-0x8(%ebp)
 8048f83:	83 7d f8 09          	cmpl   $0x9,-0x8(%ebp)
 8048f87:	7e e7                	jle    8048f70 <padding+0x4b5>
 8048f89:	c7 45 f8 00 00 00 00 	movl   $0x0,-0x8(%ebp)
 8048f90:	eb 13                	jmp    8048fa5 <padding+0x4ea>
 8048f92:	8b 45 f8             	mov    -0x8(%ebp),%eax
 8048f95:	8d 50 01             	lea    0x1(%eax),%edx
 8048f98:	8b 45 fc             	mov    -0x4(%ebp),%eax
 8048f9b:	0f af c2             	imul   %edx,%eax
 8048f9e:	89 45 fc             	mov    %eax,-0x4(%ebp)
 8048fa1:	83 45 f8 01          	addl   $0x1,-0x8(%ebp)
 8048fa5:	83 7d f8 09          	cmpl   $0x9,-0x8(%ebp)
 8048fa9:	7e e7                	jle    8048f92 <padding+0x4d7>
 8048fab:	c7 45 f8 00 00 00 00 	movl   $0x0,-0x8(%ebp)
 8048fb2:	eb 13                	jmp    8048fc7 <padding+0x50c>
 8048fb4:	8b 45 f8             	mov    -0x8(%ebp),%eax
 8048fb7:	8d 50 01             	lea    0x1(%eax),%edx
 8048fba:	8b 45 fc             	mov    -0x4(%ebp),%eax
 8048fbd:	0f af c2             	imul   %edx,%eax
 8048fc0:	89 45 fc             	mov    %eax,-0x4(%ebp)
 8048fc3:	83 45 f8 01          	addl   $0x1,-0x8(%ebp)
 8048fc7:	83 7d f8 09          	cmpl   $0x9,-0x8(%ebp)
 8048fcb:	7e e7                	jle    8048fb4 <padding+0x4f9>
 8048fcd:	c7 45 f8 00 00 00 00 	movl   $0x0,-0x8(%ebp)
 8048fd4:	eb 13                	jmp    8048fe9 <padding+0x52e>
 8048fd6:	8b 45 f8             	mov    -0x8(%ebp),%eax
 8048fd9:	8d 50 01             	lea    0x1(%eax),%edx
 8048fdc:	8b 45 fc             	mov    -0x4(%ebp),%eax
 8048fdf:	0f af c2             	imul   %edx,%eax
 8048fe2:	89 45 fc             	mov    %eax,-0x4(%ebp)
 8048fe5:	83 45 f8 01          	addl   $0x1,-0x8(%ebp)
 8048fe9:	83 7d f8 09          	cmpl   $0x9,-0x8(%ebp)
 8048fed:	7e e7                	jle    8048fd6 <padding+0x51b>
 8048fef:	c7 45 f8 00 00 00 00 	movl   $0x0,-0x8(%ebp)
 8048ff6:	eb 13                	jmp    804900b <padding+0x550>
 8048ff8:	8b 45 f8             	mov    -0x8(%ebp),%eax
 8048ffb:	8d 50 01             	lea    0x1(%eax),%edx
 8048ffe:	8b 45 fc             	mov    -0x4(%ebp),%eax
 8049001:	0f af c2             	imul   %edx,%eax
 8049004:	89 45 fc             	mov    %eax,-0x4(%ebp)
 8049007:	83 45 f8 01          	addl   $0x1,-0x8(%ebp)
 804900b:	83 7d f8 09          	cmpl   $0x9,-0x8(%ebp)
 804900f:	7e e7                	jle    8048ff8 <padding+0x53d>
 8049011:	c7 45 f8 00 00 00 00 	movl   $0x0,-0x8(%ebp)
 8049018:	eb 13                	jmp    804902d <padding+0x572>
 804901a:	8b 45 f8             	mov    -0x8(%ebp),%eax
 804901d:	8d 50 01             	lea    0x1(%eax),%edx
 8049020:	8b 45 fc             	mov    -0x4(%ebp),%eax
 8049023:	0f af c2             	imul   %edx,%eax
 8049026:	89 45 fc             	mov    %eax,-0x4(%ebp)
 8049029:	83 45 f8 01          	addl   $0x1,-0x8(%ebp)
 804902d:	83 7d f8 09          	cmpl   $0x9,-0x8(%ebp)
 8049031:	7e e7                	jle    804901a <padding+0x55f>
 8049033:	c7 45 f8 00 00 00 00 	movl   $0x0,-0x8(%ebp)
 804903a:	eb 13                	jmp    804904f <padding+0x594>
 804903c:	8b 45 f8             	mov    -0x8(%ebp),%eax
 804903f:	8d 50 01             	lea    0x1(%eax),%edx
 8049042:	8b 45 fc             	mov    -0x4(%ebp),%eax
 8049045:	0f af c2             	imul   %edx,%eax
 8049048:	89 45 fc             	mov    %eax,-0x4(%ebp)
 804904b:	83 45 f8 01          	addl   $0x1,-0x8(%ebp)
 804904f:	83 7d f8 09          	cmpl   $0x9,-0x8(%ebp)
 8049053:	7e e7                	jle    804903c <padding+0x581>
 8049055:	c7 45 f8 00 00 00 00 	movl   $0x0,-0x8(%ebp)
 804905c:	eb 13                	jmp    8049071 <padding+0x5b6>
 804905e:	8b 45 f8             	mov    -0x8(%ebp),%eax
 8049061:	8d 50 01             	lea    0x1(%eax),%edx
 8049064:	8b 45 fc             	mov    -0x4(%ebp),%eax
 8049067:	0f af c2             	imul   %edx,%eax
 804906a:	89 45 fc             	mov    %eax,-0x4(%ebp)
 804906d:	83 45 f8 01          	addl   $0x1,-0x8(%ebp)
 8049071:	83 7d f8 09          	cmpl   $0x9,-0x8(%ebp)
 8049075:	7e e7                	jle    804905e <padding+0x5a3>
 8049077:	c7 45 f8 00 00 00 00 	movl   $0x0,-0x8(%ebp)
 804907e:	eb 13                	jmp    8049093 <padding+0x5d8>
 8049080:	8b 45 f8             	mov    -0x8(%ebp),%eax
 8049083:	8d 50 01             	lea    0x1(%eax),%edx
 8049086:	8b 45 fc             	mov    -0x4(%ebp),%eax
 8049089:	0f af c2             	imul   %edx,%eax
 804908c:	89 45 fc             	mov    %eax,-0x4(%ebp)
 804908f:	83 45 f8 01          	addl   $0x1,-0x8(%ebp)
 8049093:	83 7d f8 09          	cmpl   $0x9,-0x8(%ebp)
 8049097:	7e e7                	jle    8049080 <padding+0x5c5>
 8049099:	c7 45 f8 00 00 00 00 	movl   $0x0,-0x8(%ebp)
 80490a0:	eb 13                	jmp    80490b5 <padding+0x5fa>
 80490a2:	8b 45 f8             	mov    -0x8(%ebp),%eax
 80490a5:	8d 50 01             	lea    0x1(%eax),%edx
 80490a8:	8b 45 fc             	mov    -0x4(%ebp),%eax
 80490ab:	0f af c2             	imul   %edx,%eax
 80490ae:	89 45 fc             	mov    %eax,-0x4(%ebp)
 80490b1:	83 45 f8 01          	addl   $0x1,-0x8(%ebp)
 80490b5:	83 7d f8 09          	cmpl   $0x9,-0x8(%ebp)
 80490b9:	7e e7                	jle    80490a2 <padding+0x5e7>
 80490bb:	c7 45 f8 00 00 00 00 	movl   $0x0,-0x8(%ebp)
 80490c2:	eb 13                	jmp    80490d7 <padding+0x61c>
 80490c4:	8b 45 f8             	mov    -0x8(%ebp),%eax
 80490c7:	8d 50 01             	lea    0x1(%eax),%edx
 80490ca:	8b 45 fc             	mov    -0x4(%ebp),%eax
 80490cd:	0f af c2             	imul   %edx,%eax
 80490d0:	89 45 fc             	mov    %eax,-0x4(%ebp)
 80490d3:	83 45 f8 01          	addl   $0x1,-0x8(%ebp)
 80490d7:	83 7d f8 09          	cmpl   $0x9,-0x8(%ebp)
 80490db:	7e e7                	jle    80490c4 <padding+0x609>
 80490dd:	c7 45 f8 00 00 00 00 	movl   $0x0,-0x8(%ebp)
 80490e4:	eb 13                	jmp    80490f9 <padding+0x63e>
 80490e6:	8b 45 f8             	mov    -0x8(%ebp),%eax
 80490e9:	8d 50 01             	lea    0x1(%eax),%edx
 80490ec:	8b 45 fc             	mov    -0x4(%ebp),%eax
 80490ef:	0f af c2             	imul   %edx,%eax
 80490f2:	89 45 fc             	mov    %eax,-0x4(%ebp)
 80490f5:	83 45 f8 01          	addl   $0x1,-0x8(%ebp)
 80490f9:	83 7d f8 09          	cmpl   $0x9,-0x8(%ebp)
 80490fd:	7e e7                	jle    80490e6 <padding+0x62b>
 80490ff:	c7 45 f8 00 00 00 00 	movl   $0x0,-0x8(%ebp)
 8049106:	eb 13                	jmp    804911b <padding+0x660>
 8049108:	8b 45 f8             	mov    -0x8(%ebp),%eax
 804910b:	8d 50 01             	lea    0x1(%eax),%edx
 804910e:	8b 45 fc             	mov    -0x4(%ebp),%eax
 8049111:	0f af c2             	imul   %edx,%eax
 8049114:	89 45 fc             	mov    %eax,-0x4(%ebp)
 8049117:	83 45 f8 01          	addl   $0x1,-0x8(%ebp)
 804911b:	83 7d f8 09          	cmpl   $0x9,-0x8(%ebp)
 804911f:	7e e7                	jle    8049108 <padding+0x64d>
 8049121:	c7 45 f8 00 00 00 00 	movl   $0x0,-0x8(%ebp)
 8049128:	eb 13                	jmp    804913d <padding+0x682>
 804912a:	8b 45 f8             	mov    -0x8(%ebp),%eax
 804912d:	8d 50 01             	lea    0x1(%eax),%edx
 8049130:	8b 45 fc             	mov    -0x4(%ebp),%eax
 8049133:	0f af c2             	imul   %edx,%eax
 8049136:	89 45 fc             	mov    %eax,-0x4(%ebp)
 8049139:	83 45 f8 01          	addl   $0x1,-0x8(%ebp)
 804913d:	83 7d f8 09          	cmpl   $0x9,-0x8(%ebp)
 8049141:	7e e7                	jle    804912a <padding+0x66f>
 8049143:	c7 45 f8 00 00 00 00 	movl   $0x0,-0x8(%ebp)
 804914a:	eb 13                	jmp    804915f <padding+0x6a4>
 804914c:	8b 45 f8             	mov    -0x8(%ebp),%eax
 804914f:	8d 50 01             	lea    0x1(%eax),%edx
 8049152:	8b 45 fc             	mov    -0x4(%ebp),%eax
 8049155:	0f af c2             	imul   %edx,%eax
 8049158:	89 45 fc             	mov    %eax,-0x4(%ebp)
 804915b:	83 45 f8 01          	addl   $0x1,-0x8(%ebp)
 804915f:	83 7d f8 09          	cmpl   $0x9,-0x8(%ebp)
 8049163:	7e e7                	jle    804914c <padding+0x691>
 8049165:	c7 45 f8 00 00 00 00 	movl   $0x0,-0x8(%ebp)
 804916c:	eb 13                	jmp    8049181 <padding+0x6c6>
 804916e:	8b 45 f8             	mov    -0x8(%ebp),%eax
 8049171:	8d 50 01             	lea    0x1(%eax),%edx
 8049174:	8b 45 fc             	mov    -0x4(%ebp),%eax
 8049177:	0f af c2             	imul   %edx,%eax
 804917a:	89 45 fc             	mov    %eax,-0x4(%ebp)
 804917d:	83 45 f8 01          	addl   $0x1,-0x8(%ebp)
 8049181:	83 7d f8 09          	cmpl   $0x9,-0x8(%ebp)
 8049185:	7e e7                	jle    804916e <padding+0x6b3>
 8049187:	c7 45 f8 00 00 00 00 	movl   $0x0,-0x8(%ebp)
 804918e:	eb 13                	jmp    80491a3 <padding+0x6e8>
 8049190:	8b 45 f8             	mov    -0x8(%ebp),%eax
 8049193:	8d 50 01             	lea    0x1(%eax),%edx
 8049196:	8b 45 fc             	mov    -0x4(%ebp),%eax
 8049199:	0f af c2             	imul   %edx,%eax
 804919c:	89 45 fc             	mov    %eax,-0x4(%ebp)
 804919f:	83 45 f8 01          	addl   $0x1,-0x8(%ebp)
 80491a3:	83 7d f8 09          	cmpl   $0x9,-0x8(%ebp)
 80491a7:	7e e7                	jle    8049190 <padding+0x6d5>
 80491a9:	c7 45 f8 00 00 00 00 	movl   $0x0,-0x8(%ebp)
 80491b0:	eb 13                	jmp    80491c5 <padding+0x70a>
 80491b2:	8b 45 f8             	mov    -0x8(%ebp),%eax
 80491b5:	8d 50 01             	lea    0x1(%eax),%edx
 80491b8:	8b 45 fc             	mov    -0x4(%ebp),%eax
 80491bb:	0f af c2             	imul   %edx,%eax
 80491be:	89 45 fc             	mov    %eax,-0x4(%ebp)
 80491c1:	83 45 f8 01          	addl   $0x1,-0x8(%ebp)
 80491c5:	83 7d f8 09          	cmpl   $0x9,-0x8(%ebp)
 80491c9:	7e e7                	jle    80491b2 <padding+0x6f7>
 80491cb:	c7 45 f8 00 00 00 00 	movl   $0x0,-0x8(%ebp)
 80491d2:	eb 13                	jmp    80491e7 <padding+0x72c>
 80491d4:	8b 45 f8             	mov    -0x8(%ebp),%eax
 80491d7:	8d 50 01             	lea    0x1(%eax),%edx
 80491da:	8b 45 fc             	mov    -0x4(%ebp),%eax
 80491dd:	0f af c2             	imul   %edx,%eax
 80491e0:	89 45 fc             	mov    %eax,-0x4(%ebp)
 80491e3:	83 45 f8 01          	addl   $0x1,-0x8(%ebp)
 80491e7:	83 7d f8 09          	cmpl   $0x9,-0x8(%ebp)
 80491eb:	7e e7                	jle    80491d4 <padding+0x719>
 80491ed:	c7 45 f8 00 00 00 00 	movl   $0x0,-0x8(%ebp)
 80491f4:	eb 13                	jmp    8049209 <padding+0x74e>
 80491f6:	8b 45 f8             	mov    -0x8(%ebp),%eax
 80491f9:	8d 50 01             	lea    0x1(%eax),%edx
 80491fc:	8b 45 fc             	mov    -0x4(%ebp),%eax
 80491ff:	0f af c2             	imul   %edx,%eax
 8049202:	89 45 fc             	mov    %eax,-0x4(%ebp)
 8049205:	83 45 f8 01          	addl   $0x1,-0x8(%ebp)
 8049209:	83 7d f8 09          	cmpl   $0x9,-0x8(%ebp)
 804920d:	7e e7                	jle    80491f6 <padding+0x73b>
 804920f:	c7 45 f8 00 00 00 00 	movl   $0x0,-0x8(%ebp)
 8049216:	eb 13                	jmp    804922b <padding+0x770>
 8049218:	8b 45 f8             	mov    -0x8(%ebp),%eax
 804921b:	8d 50 01             	lea    0x1(%eax),%edx
 804921e:	8b 45 fc             	mov    -0x4(%ebp),%eax
 8049221:	0f af c2             	imul   %edx,%eax
 8049224:	89 45 fc             	mov    %eax,-0x4(%ebp)
 8049227:	83 45 f8 01          	addl   $0x1,-0x8(%ebp)
 804922b:	83 7d f8 09          	cmpl   $0x9,-0x8(%ebp)
 804922f:	7e e7                	jle    8049218 <padding+0x75d>
 8049231:	c7 45 f8 00 00 00 00 	movl   $0x0,-0x8(%ebp)
 8049238:	eb 13                	jmp    804924d <padding+0x792>
 804923a:	8b 45 f8             	mov    -0x8(%ebp),%eax
 804923d:	8d 50 01             	lea    0x1(%eax),%edx
 8049240:	8b 45 fc             	mov    -0x4(%ebp),%eax
 8049243:	0f af c2             	imul   %edx,%eax
 8049246:	89 45 fc             	mov    %eax,-0x4(%ebp)
 8049249:	83 45 f8 01          	addl   $0x1,-0x8(%ebp)
 804924d:	83 7d f8 09          	cmpl   $0x9,-0x8(%ebp)
 8049251:	7e e7                	jle    804923a <padding+0x77f>
 8049253:	c7 45 f8 00 00 00 00 	movl   $0x0,-0x8(%ebp)
 804925a:	eb 13                	jmp    804926f <padding+0x7b4>
 804925c:	8b 45 f8             	mov    -0x8(%ebp),%eax
 804925f:	8d 50 01             	lea    0x1(%eax),%edx
 8049262:	8b 45 fc             	mov    -0x4(%ebp),%eax
 8049265:	0f af c2             	imul   %edx,%eax
 8049268:	89 45 fc             	mov    %eax,-0x4(%ebp)
 804926b:	83 45 f8 01          	addl   $0x1,-0x8(%ebp)
 804926f:	83 7d f8 09          	cmpl   $0x9,-0x8(%ebp)
 8049273:	7e e7                	jle    804925c <padding+0x7a1>
 8049275:	c7 45 f8 00 00 00 00 	movl   $0x0,-0x8(%ebp)
 804927c:	eb 13                	jmp    8049291 <padding+0x7d6>
 804927e:	8b 45 f8             	mov    -0x8(%ebp),%eax
 8049281:	8d 50 01             	lea    0x1(%eax),%edx
 8049284:	8b 45 fc             	mov    -0x4(%ebp),%eax
 8049287:	0f af c2             	imul   %edx,%eax
 804928a:	89 45 fc             	mov    %eax,-0x4(%ebp)
 804928d:	83 45 f8 01          	addl   $0x1,-0x8(%ebp)
 8049291:	83 7d f8 09          	cmpl   $0x9,-0x8(%ebp)
 8049295:	7e e7                	jle    804927e <padding+0x7c3>
 8049297:	c7 45 f8 00 00 00 00 	movl   $0x0,-0x8(%ebp)
 804929e:	eb 13                	jmp    80492b3 <padding+0x7f8>
 80492a0:	8b 45 f8             	mov    -0x8(%ebp),%eax
 80492a3:	8d 50 01             	lea    0x1(%eax),%edx
 80492a6:	8b 45 fc             	mov    -0x4(%ebp),%eax
 80492a9:	0f af c2             	imul   %edx,%eax
 80492ac:	89 45 fc             	mov    %eax,-0x4(%ebp)
 80492af:	83 45 f8 01          	addl   $0x1,-0x8(%ebp)
 80492b3:	83 7d f8 09          	cmpl   $0x9,-0x8(%ebp)
 80492b7:	7e e7                	jle    80492a0 <padding+0x7e5>
 80492b9:	c7 45 f8 00 00 00 00 	movl   $0x0,-0x8(%ebp)
 80492c0:	eb 13                	jmp    80492d5 <padding+0x81a>
 80492c2:	8b 45 f8             	mov    -0x8(%ebp),%eax
 80492c5:	8d 50 01             	lea    0x1(%eax),%edx
 80492c8:	8b 45 fc             	mov    -0x4(%ebp),%eax
 80492cb:	0f af c2             	imul   %edx,%eax
 80492ce:	89 45 fc             	mov    %eax,-0x4(%ebp)
 80492d1:	83 45 f8 01          	addl   $0x1,-0x8(%ebp)
 80492d5:	83 7d f8 09          	cmpl   $0x9,-0x8(%ebp)
 80492d9:	7e e7                	jle    80492c2 <padding+0x807>
 80492db:	c7 45 f8 00 00 00 00 	movl   $0x0,-0x8(%ebp)
 80492e2:	eb 13                	jmp    80492f7 <padding+0x83c>
 80492e4:	8b 45 f8             	mov    -0x8(%ebp),%eax
 80492e7:	8d 50 01             	lea    0x1(%eax),%edx
 80492ea:	8b 45 fc             	mov    -0x4(%ebp),%eax
 80492ed:	0f af c2             	imul   %edx,%eax
 80492f0:	89 45 fc             	mov    %eax,-0x4(%ebp)
 80492f3:	83 45 f8 01          	addl   $0x1,-0x8(%ebp)
 80492f7:	83 7d f8 09          	cmpl   $0x9,-0x8(%ebp)
 80492fb:	7e e7                	jle    80492e4 <padding+0x829>
 80492fd:	c7 45 f8 00 00 00 00 	movl   $0x0,-0x8(%ebp)
 8049304:	eb 13                	jmp    8049319 <padding+0x85e>
 8049306:	8b 45 f8             	mov    -0x8(%ebp),%eax
 8049309:	8d 50 01             	lea    0x1(%eax),%edx
 804930c:	8b 45 fc             	mov    -0x4(%ebp),%eax
 804930f:	0f af c2             	imul   %edx,%eax
 8049312:	89 45 fc             	mov    %eax,-0x4(%ebp)
 8049315:	83 45 f8 01          	addl   $0x1,-0x8(%ebp)
 8049319:	83 7d f8 09          	cmpl   $0x9,-0x8(%ebp)
 804931d:	7e e7                	jle    8049306 <padding+0x84b>
 804931f:	c7 45 f8 00 00 00 00 	movl   $0x0,-0x8(%ebp)
 8049326:	eb 13                	jmp    804933b <padding+0x880>
 8049328:	8b 45 f8             	mov    -0x8(%ebp),%eax
 804932b:	8d 50 01             	lea    0x1(%eax),%edx
 804932e:	8b 45 fc             	mov    -0x4(%ebp),%eax
 8049331:	0f af c2             	imul   %edx,%eax
 8049334:	89 45 fc             	mov    %eax,-0x4(%ebp)
 8049337:	83 45 f8 01          	addl   $0x1,-0x8(%ebp)
 804933b:	83 7d f8 09          	cmpl   $0x9,-0x8(%ebp)
 804933f:	7e e7                	jle    8049328 <padding+0x86d>
 8049341:	c7 45 f8 00 00 00 00 	movl   $0x0,-0x8(%ebp)
 8049348:	eb 13                	jmp    804935d <padding+0x8a2>
 804934a:	8b 45 f8             	mov    -0x8(%ebp),%eax
 804934d:	8d 50 01             	lea    0x1(%eax),%edx
 8049350:	8b 45 fc             	mov    -0x4(%ebp),%eax
 8049353:	0f af c2             	imul   %edx,%eax
 8049356:	89 45 fc             	mov    %eax,-0x4(%ebp)
 8049359:	83 45 f8 01          	addl   $0x1,-0x8(%ebp)
 804935d:	83 7d f8 09          	cmpl   $0x9,-0x8(%ebp)
 8049361:	7e e7                	jle    804934a <padding+0x88f>
 8049363:	c7 45 f8 00 00 00 00 	movl   $0x0,-0x8(%ebp)
 804936a:	eb 13                	jmp    804937f <padding+0x8c4>
 804936c:	8b 45 f8             	mov    -0x8(%ebp),%eax
 804936f:	8d 50 01             	lea    0x1(%eax),%edx
 8049372:	8b 45 fc             	mov    -0x4(%ebp),%eax
 8049375:	0f af c2             	imul   %edx,%eax
 8049378:	89 45 fc             	mov    %eax,-0x4(%ebp)
 804937b:	83 45 f8 01          	addl   $0x1,-0x8(%ebp)
 804937f:	83 7d f8 09          	cmpl   $0x9,-0x8(%ebp)
 8049383:	7e e7                	jle    804936c <padding+0x8b1>
 8049385:	c7 45 f8 00 00 00 00 	movl   $0x0,-0x8(%ebp)
 804938c:	eb 13                	jmp    80493a1 <padding+0x8e6>
 804938e:	8b 45 f8             	mov    -0x8(%ebp),%eax
 8049391:	8d 50 01             	lea    0x1(%eax),%edx
 8049394:	8b 45 fc             	mov    -0x4(%ebp),%eax
 8049397:	0f af c2             	imul   %edx,%eax
 804939a:	89 45 fc             	mov    %eax,-0x4(%ebp)
 804939d:	83 45 f8 01          	addl   $0x1,-0x8(%ebp)
 80493a1:	83 7d f8 09          	cmpl   $0x9,-0x8(%ebp)
 80493a5:	7e e7                	jle    804938e <padding+0x8d3>
 80493a7:	c7 45 f8 00 00 00 00 	movl   $0x0,-0x8(%ebp)
 80493ae:	eb 13                	jmp    80493c3 <padding+0x908>
 80493b0:	8b 45 f8             	mov    -0x8(%ebp),%eax
 80493b3:	8d 50 01             	lea    0x1(%eax),%edx
 80493b6:	8b 45 fc             	mov    -0x4(%ebp),%eax
 80493b9:	0f af c2             	imul   %edx,%eax
 80493bc:	89 45 fc             	mov    %eax,-0x4(%ebp)
 80493bf:	83 45 f8 01          	addl   $0x1,-0x8(%ebp)
 80493c3:	83 7d f8 09          	cmpl   $0x9,-0x8(%ebp)
 80493c7:	7e e7                	jle    80493b0 <padding+0x8f5>
 80493c9:	c7 45 f8 00 00 00 00 	movl   $0x0,-0x8(%ebp)
 80493d0:	eb 13                	jmp    80493e5 <padding+0x92a>
 80493d2:	8b 45 f8             	mov    -0x8(%ebp),%eax
 80493d5:	8d 50 01             	lea    0x1(%eax),%edx
 80493d8:	8b 45 fc             	mov    -0x4(%ebp),%eax
 80493db:	0f af c2             	imul   %edx,%eax
 80493de:	89 45 fc             	mov    %eax,-0x4(%ebp)
 80493e1:	83 45 f8 01          	addl   $0x1,-0x8(%ebp)
 80493e5:	83 7d f8 09          	cmpl   $0x9,-0x8(%ebp)
 80493e9:	7e e7                	jle    80493d2 <padding+0x917>
 80493eb:	c7 45 f8 00 00 00 00 	movl   $0x0,-0x8(%ebp)
 80493f2:	eb 13                	jmp    8049407 <padding+0x94c>
 80493f4:	8b 45 f8             	mov    -0x8(%ebp),%eax
 80493f7:	8d 50 01             	lea    0x1(%eax),%edx
 80493fa:	8b 45 fc             	mov    -0x4(%ebp),%eax
 80493fd:	0f af c2             	imul   %edx,%eax
 8049400:	89 45 fc             	mov    %eax,-0x4(%ebp)
 8049403:	83 45 f8 01          	addl   $0x1,-0x8(%ebp)
 8049407:	83 7d f8 09          	cmpl   $0x9,-0x8(%ebp)
 804940b:	7e e7                	jle    80493f4 <padding+0x939>
 804940d:	c7 45 f8 00 00 00 00 	movl   $0x0,-0x8(%ebp)
 8049414:	eb 13                	jmp    8049429 <padding+0x96e>
 8049416:	8b 45 f8             	mov    -0x8(%ebp),%eax
 8049419:	8d 50 01             	lea    0x1(%eax),%edx
 804941c:	8b 45 fc             	mov    -0x4(%ebp),%eax
 804941f:	0f af c2             	imul   %edx,%eax
 8049422:	89 45 fc             	mov    %eax,-0x4(%ebp)
 8049425:	83 45 f8 01          	addl   $0x1,-0x8(%ebp)
 8049429:	83 7d f8 09          	cmpl   $0x9,-0x8(%ebp)
 804942d:	7e e7                	jle    8049416 <padding+0x95b>
 804942f:	c7 45 f8 00 00 00 00 	movl   $0x0,-0x8(%ebp)
 8049436:	eb 13                	jmp    804944b <padding+0x990>
 8049438:	8b 45 f8             	mov    -0x8(%ebp),%eax
 804943b:	8d 50 01             	lea    0x1(%eax),%edx
 804943e:	8b 45 fc             	mov    -0x4(%ebp),%eax
 8049441:	0f af c2             	imul   %edx,%eax
 8049444:	89 45 fc             	mov    %eax,-0x4(%ebp)
 8049447:	83 45 f8 01          	addl   $0x1,-0x8(%ebp)
 804944b:	83 7d f8 09          	cmpl   $0x9,-0x8(%ebp)
 804944f:	7e e7                	jle    8049438 <padding+0x97d>
 8049451:	c7 45 f8 00 00 00 00 	movl   $0x0,-0x8(%ebp)
 8049458:	eb 13                	jmp    804946d <padding+0x9b2>
 804945a:	8b 45 f8             	mov    -0x8(%ebp),%eax
 804945d:	8d 50 01             	lea    0x1(%eax),%edx
 8049460:	8b 45 fc             	mov    -0x4(%ebp),%eax
 8049463:	0f af c2             	imul   %edx,%eax
 8049466:	89 45 fc             	mov    %eax,-0x4(%ebp)
 8049469:	83 45 f8 01          	addl   $0x1,-0x8(%ebp)
 804946d:	83 7d f8 09          	cmpl   $0x9,-0x8(%ebp)
 8049471:	7e e7                	jle    804945a <padding+0x99f>
 8049473:	c7 45 f8 00 00 00 00 	movl   $0x0,-0x8(%ebp)
 804947a:	eb 13                	jmp    804948f <padding+0x9d4>
 804947c:	8b 45 f8             	mov    -0x8(%ebp),%eax
 804947f:	8d 50 01             	lea    0x1(%eax),%edx
 8049482:	8b 45 fc             	mov    -0x4(%ebp),%eax
 8049485:	0f af c2             	imul   %edx,%eax
 8049488:	89 45 fc             	mov    %eax,-0x4(%ebp)
 804948b:	83 45 f8 01          	addl   $0x1,-0x8(%ebp)
 804948f:	83 7d f8 09          	cmpl   $0x9,-0x8(%ebp)
 8049493:	7e e7                	jle    804947c <padding+0x9c1>
 8049495:	c7 45 f8 00 00 00 00 	movl   $0x0,-0x8(%ebp)
 804949c:	eb 13                	jmp    80494b1 <padding+0x9f6>
 804949e:	8b 45 f8             	mov    -0x8(%ebp),%eax
 80494a1:	8d 50 01             	lea    0x1(%eax),%edx
 80494a4:	8b 45 fc             	mov    -0x4(%ebp),%eax
 80494a7:	0f af c2             	imul   %edx,%eax
 80494aa:	89 45 fc             	mov    %eax,-0x4(%ebp)
 80494ad:	83 45 f8 01          	addl   $0x1,-0x8(%ebp)
 80494b1:	83 7d f8 09          	cmpl   $0x9,-0x8(%ebp)
 80494b5:	7e e7                	jle    804949e <padding+0x9e3>
 80494b7:	c7 45 f8 00 00 00 00 	movl   $0x0,-0x8(%ebp)
 80494be:	eb 13                	jmp    80494d3 <padding+0xa18>
 80494c0:	8b 45 f8             	mov    -0x8(%ebp),%eax
 80494c3:	8d 50 01             	lea    0x1(%eax),%edx
 80494c6:	8b 45 fc             	mov    -0x4(%ebp),%eax
 80494c9:	0f af c2             	imul   %edx,%eax
 80494cc:	89 45 fc             	mov    %eax,-0x4(%ebp)
 80494cf:	83 45 f8 01          	addl   $0x1,-0x8(%ebp)
 80494d3:	83 7d f8 09          	cmpl   $0x9,-0x8(%ebp)
 80494d7:	7e e7                	jle    80494c0 <padding+0xa05>
 80494d9:	c7 45 f8 00 00 00 00 	movl   $0x0,-0x8(%ebp)
 80494e0:	eb 13                	jmp    80494f5 <padding+0xa3a>
 80494e2:	8b 45 f8             	mov    -0x8(%ebp),%eax
 80494e5:	8d 50 01             	lea    0x1(%eax),%edx
 80494e8:	8b 45 fc             	mov    -0x4(%ebp),%eax
 80494eb:	0f af c2             	imul   %edx,%eax
 80494ee:	89 45 fc             	mov    %eax,-0x4(%ebp)
 80494f1:	83 45 f8 01          	addl   $0x1,-0x8(%ebp)
 80494f5:	83 7d f8 09          	cmpl   $0x9,-0x8(%ebp)
 80494f9:	7e e7                	jle    80494e2 <padding+0xa27>
 80494fb:	c7 45 f8 00 00 00 00 	movl   $0x0,-0x8(%ebp)
 8049502:	eb 13                	jmp    8049517 <padding+0xa5c>
 8049504:	8b 45 f8             	mov    -0x8(%ebp),%eax
 8049507:	8d 50 01             	lea    0x1(%eax),%edx
 804950a:	8b 45 fc             	mov    -0x4(%ebp),%eax
 804950d:	0f af c2             	imul   %edx,%eax
 8049510:	89 45 fc             	mov    %eax,-0x4(%ebp)
 8049513:	83 45 f8 01          	addl   $0x1,-0x8(%ebp)
 8049517:	83 7d f8 09          	cmpl   $0x9,-0x8(%ebp)
 804951b:	7e e7                	jle    8049504 <padding+0xa49>
 804951d:	c7 45 f8 00 00 00 00 	movl   $0x0,-0x8(%ebp)
 8049524:	eb 13                	jmp    8049539 <padding+0xa7e>
 8049526:	8b 45 f8             	mov    -0x8(%ebp),%eax
 8049529:	8d 50 01             	lea    0x1(%eax),%edx
 804952c:	8b 45 fc             	mov    -0x4(%ebp),%eax
 804952f:	0f af c2             	imul   %edx,%eax
 8049532:	89 45 fc             	mov    %eax,-0x4(%ebp)
 8049535:	83 45 f8 01          	addl   $0x1,-0x8(%ebp)
 8049539:	83 7d f8 09          	cmpl   $0x9,-0x8(%ebp)
 804953d:	7e e7                	jle    8049526 <padding+0xa6b>
 804953f:	c7 45 f8 00 00 00 00 	movl   $0x0,-0x8(%ebp)
 8049546:	eb 13                	jmp    804955b <padding+0xaa0>
 8049548:	8b 45 f8             	mov    -0x8(%ebp),%eax
 804954b:	8d 50 01             	lea    0x1(%eax),%edx
 804954e:	8b 45 fc             	mov    -0x4(%ebp),%eax
 8049551:	0f af c2             	imul   %edx,%eax
 8049554:	89 45 fc             	mov    %eax,-0x4(%ebp)
 8049557:	83 45 f8 01          	addl   $0x1,-0x8(%ebp)
 804955b:	83 7d f8 09          	cmpl   $0x9,-0x8(%ebp)
 804955f:	7e e7                	jle    8049548 <padding+0xa8d>
 8049561:	c7 45 f8 00 00 00 00 	movl   $0x0,-0x8(%ebp)
 8049568:	eb 13                	jmp    804957d <padding+0xac2>
 804956a:	8b 45 f8             	mov    -0x8(%ebp),%eax
 804956d:	8d 50 01             	lea    0x1(%eax),%edx
 8049570:	8b 45 fc             	mov    -0x4(%ebp),%eax
 8049573:	0f af c2             	imul   %edx,%eax
 8049576:	89 45 fc             	mov    %eax,-0x4(%ebp)
 8049579:	83 45 f8 01          	addl   $0x1,-0x8(%ebp)
 804957d:	83 7d f8 09          	cmpl   $0x9,-0x8(%ebp)
 8049581:	7e e7                	jle    804956a <padding+0xaaf>
 8049583:	c7 45 f8 00 00 00 00 	movl   $0x0,-0x8(%ebp)
 804958a:	eb 13                	jmp    804959f <padding+0xae4>
 804958c:	8b 45 f8             	mov    -0x8(%ebp),%eax
 804958f:	8d 50 01             	lea    0x1(%eax),%edx
 8049592:	8b 45 fc             	mov    -0x4(%ebp),%eax
 8049595:	0f af c2             	imul   %edx,%eax
 8049598:	89 45 fc             	mov    %eax,-0x4(%ebp)
 804959b:	83 45 f8 01          	addl   $0x1,-0x8(%ebp)
 804959f:	83 7d f8 09          	cmpl   $0x9,-0x8(%ebp)
 80495a3:	7e e7                	jle    804958c <padding+0xad1>
 80495a5:	c7 45 f8 00 00 00 00 	movl   $0x0,-0x8(%ebp)
 80495ac:	eb 13                	jmp    80495c1 <padding+0xb06>
 80495ae:	8b 45 f8             	mov    -0x8(%ebp),%eax
 80495b1:	8d 50 01             	lea    0x1(%eax),%edx
 80495b4:	8b 45 fc             	mov    -0x4(%ebp),%eax
 80495b7:	0f af c2             	imul   %edx,%eax
 80495ba:	89 45 fc             	mov    %eax,-0x4(%ebp)
 80495bd:	83 45 f8 01          	addl   $0x1,-0x8(%ebp)
 80495c1:	83 7d f8 09          	cmpl   $0x9,-0x8(%ebp)
 80495c5:	7e e7                	jle    80495ae <padding+0xaf3>
 80495c7:	c7 45 f8 00 00 00 00 	movl   $0x0,-0x8(%ebp)
 80495ce:	eb 13                	jmp    80495e3 <padding+0xb28>
 80495d0:	8b 45 f8             	mov    -0x8(%ebp),%eax
 80495d3:	8d 50 01             	lea    0x1(%eax),%edx
 80495d6:	8b 45 fc             	mov    -0x4(%ebp),%eax
 80495d9:	0f af c2             	imul   %edx,%eax
 80495dc:	89 45 fc             	mov    %eax,-0x4(%ebp)
 80495df:	83 45 f8 01          	addl   $0x1,-0x8(%ebp)
 80495e3:	83 7d f8 09          	cmpl   $0x9,-0x8(%ebp)
 80495e7:	7e e7                	jle    80495d0 <padding+0xb15>
 80495e9:	c7 45 f8 00 00 00 00 	movl   $0x0,-0x8(%ebp)
 80495f0:	eb 13                	jmp    8049605 <padding+0xb4a>
 80495f2:	8b 45 f8             	mov    -0x8(%ebp),%eax
 80495f5:	8d 50 01             	lea    0x1(%eax),%edx
 80495f8:	8b 45 fc             	mov    -0x4(%ebp),%eax
 80495fb:	0f af c2             	imul   %edx,%eax
 80495fe:	89 45 fc             	mov    %eax,-0x4(%ebp)
 8049601:	83 45 f8 01          	addl   $0x1,-0x8(%ebp)
 8049605:	83 7d f8 09          	cmpl   $0x9,-0x8(%ebp)
 8049609:	7e e7                	jle    80495f2 <padding+0xb37>
 804960b:	c7 45 f8 00 00 00 00 	movl   $0x0,-0x8(%ebp)
 8049612:	eb 13                	jmp    8049627 <padding+0xb6c>
 8049614:	8b 45 f8             	mov    -0x8(%ebp),%eax
 8049617:	8d 50 01             	lea    0x1(%eax),%edx
 804961a:	8b 45 fc             	mov    -0x4(%ebp),%eax
 804961d:	0f af c2             	imul   %edx,%eax
 8049620:	89 45 fc             	mov    %eax,-0x4(%ebp)
 8049623:	83 45 f8 01          	addl   $0x1,-0x8(%ebp)
 8049627:	83 7d f8 09          	cmpl   $0x9,-0x8(%ebp)
 804962b:	7e e7                	jle    8049614 <padding+0xb59>
 804962d:	c7 45 f8 00 00 00 00 	movl   $0x0,-0x8(%ebp)
 8049634:	eb 13                	jmp    8049649 <padding+0xb8e>
 8049636:	8b 45 f8             	mov    -0x8(%ebp),%eax
 8049639:	8d 50 01             	lea    0x1(%eax),%edx
 804963c:	8b 45 fc             	mov    -0x4(%ebp),%eax
 804963f:	0f af c2             	imul   %edx,%eax
 8049642:	89 45 fc             	mov    %eax,-0x4(%ebp)
 8049645:	83 45 f8 01          	addl   $0x1,-0x8(%ebp)
 8049649:	83 7d f8 09          	cmpl   $0x9,-0x8(%ebp)
 804964d:	7e e7                	jle    8049636 <padding+0xb7b>
 804964f:	c7 45 f8 00 00 00 00 	movl   $0x0,-0x8(%ebp)
 8049656:	eb 13                	jmp    804966b <padding+0xbb0>
 8049658:	8b 45 f8             	mov    -0x8(%ebp),%eax
 804965b:	8d 50 01             	lea    0x1(%eax),%edx
 804965e:	8b 45 fc             	mov    -0x4(%ebp),%eax
 8049661:	0f af c2             	imul   %edx,%eax
 8049664:	89 45 fc             	mov    %eax,-0x4(%ebp)
 8049667:	83 45 f8 01          	addl   $0x1,-0x8(%ebp)
 804966b:	83 7d f8 09          	cmpl   $0x9,-0x8(%ebp)
 804966f:	7e e7                	jle    8049658 <padding+0xb9d>
 8049671:	c7 45 f8 00 00 00 00 	movl   $0x0,-0x8(%ebp)
 8049678:	eb 13                	jmp    804968d <padding+0xbd2>
 804967a:	8b 45 f8             	mov    -0x8(%ebp),%eax
 804967d:	8d 50 01             	lea    0x1(%eax),%edx
 8049680:	8b 45 fc             	mov    -0x4(%ebp),%eax
 8049683:	0f af c2             	imul   %edx,%eax
 8049686:	89 45 fc             	mov    %eax,-0x4(%ebp)
 8049689:	83 45 f8 01          	addl   $0x1,-0x8(%ebp)
 804968d:	83 7d f8 09          	cmpl   $0x9,-0x8(%ebp)
 8049691:	7e e7                	jle    804967a <padding+0xbbf>
 8049693:	c7 45 f8 00 00 00 00 	movl   $0x0,-0x8(%ebp)
 804969a:	eb 13                	jmp    80496af <padding+0xbf4>
 804969c:	8b 45 f8             	mov    -0x8(%ebp),%eax
 804969f:	8d 50 01             	lea    0x1(%eax),%edx
 80496a2:	8b 45 fc             	mov    -0x4(%ebp),%eax
 80496a5:	0f af c2             	imul   %edx,%eax
 80496a8:	89 45 fc             	mov    %eax,-0x4(%ebp)
 80496ab:	83 45 f8 01          	addl   $0x1,-0x8(%ebp)
 80496af:	83 7d f8 09          	cmpl   $0x9,-0x8(%ebp)
 80496b3:	7e e7                	jle    804969c <padding+0xbe1>
 80496b5:	c7 45 f8 00 00 00 00 	movl   $0x0,-0x8(%ebp)
 80496bc:	eb 13                	jmp    80496d1 <padding+0xc16>
 80496be:	8b 45 f8             	mov    -0x8(%ebp),%eax
 80496c1:	8d 50 01             	lea    0x1(%eax),%edx
 80496c4:	8b 45 fc             	mov    -0x4(%ebp),%eax
 80496c7:	0f af c2             	imul   %edx,%eax
 80496ca:	89 45 fc             	mov    %eax,-0x4(%ebp)
 80496cd:	83 45 f8 01          	addl   $0x1,-0x8(%ebp)
 80496d1:	83 7d f8 09          	cmpl   $0x9,-0x8(%ebp)
 80496d5:	7e e7                	jle    80496be <padding+0xc03>
 80496d7:	c7 45 f8 00 00 00 00 	movl   $0x0,-0x8(%ebp)
 80496de:	eb 13                	jmp    80496f3 <padding+0xc38>
 80496e0:	8b 45 f8             	mov    -0x8(%ebp),%eax
 80496e3:	8d 50 01             	lea    0x1(%eax),%edx
 80496e6:	8b 45 fc             	mov    -0x4(%ebp),%eax
 80496e9:	0f af c2             	imul   %edx,%eax
 80496ec:	89 45 fc             	mov    %eax,-0x4(%ebp)
 80496ef:	83 45 f8 01          	addl   $0x1,-0x8(%ebp)
 80496f3:	83 7d f8 09          	cmpl   $0x9,-0x8(%ebp)
 80496f7:	7e e7                	jle    80496e0 <padding+0xc25>
 80496f9:	c7 45 f8 00 00 00 00 	movl   $0x0,-0x8(%ebp)
 8049700:	eb 13                	jmp    8049715 <padding+0xc5a>
 8049702:	8b 45 f8             	mov    -0x8(%ebp),%eax
 8049705:	8d 50 01             	lea    0x1(%eax),%edx
 8049708:	8b 45 fc             	mov    -0x4(%ebp),%eax
 804970b:	0f af c2             	imul   %edx,%eax
 804970e:	89 45 fc             	mov    %eax,-0x4(%ebp)
 8049711:	83 45 f8 01          	addl   $0x1,-0x8(%ebp)
 8049715:	83 7d f8 09          	cmpl   $0x9,-0x8(%ebp)
 8049719:	7e e7                	jle    8049702 <padding+0xc47>
 804971b:	c7 45 f8 00 00 00 00 	movl   $0x0,-0x8(%ebp)
 8049722:	eb 13                	jmp    8049737 <padding+0xc7c>
 8049724:	8b 45 f8             	mov    -0x8(%ebp),%eax
 8049727:	8d 50 01             	lea    0x1(%eax),%edx
 804972a:	8b 45 fc             	mov    -0x4(%ebp),%eax
 804972d:	0f af c2             	imul   %edx,%eax
 8049730:	89 45 fc             	mov    %eax,-0x4(%ebp)
 8049733:	83 45 f8 01          	addl   $0x1,-0x8(%ebp)
 8049737:	83 7d f8 09          	cmpl   $0x9,-0x8(%ebp)
 804973b:	7e e7                	jle    8049724 <padding+0xc69>
 804973d:	c7 45 f8 00 00 00 00 	movl   $0x0,-0x8(%ebp)
 8049744:	eb 13                	jmp    8049759 <padding+0xc9e>
 8049746:	8b 45 f8             	mov    -0x8(%ebp),%eax
 8049749:	8d 50 01             	lea    0x1(%eax),%edx
 804974c:	8b 45 fc             	mov    -0x4(%ebp),%eax
 804974f:	0f af c2             	imul   %edx,%eax
 8049752:	89 45 fc             	mov    %eax,-0x4(%ebp)
 8049755:	83 45 f8 01          	addl   $0x1,-0x8(%ebp)
 8049759:	83 7d f8 09          	cmpl   $0x9,-0x8(%ebp)
 804975d:	7e e7                	jle    8049746 <padding+0xc8b>
 804975f:	c7 45 f8 00 00 00 00 	movl   $0x0,-0x8(%ebp)
 8049766:	eb 13                	jmp    804977b <padding+0xcc0>
 8049768:	8b 45 f8             	mov    -0x8(%ebp),%eax
 804976b:	8d 50 01             	lea    0x1(%eax),%edx
 804976e:	8b 45 fc             	mov    -0x4(%ebp),%eax
 8049771:	0f af c2             	imul   %edx,%eax
 8049774:	89 45 fc             	mov    %eax,-0x4(%ebp)
 8049777:	83 45 f8 01          	addl   $0x1,-0x8(%ebp)
 804977b:	83 7d f8 09          	cmpl   $0x9,-0x8(%ebp)
 804977f:	7e e7                	jle    8049768 <padding+0xcad>
 8049781:	c7 45 f8 00 00 00 00 	movl   $0x0,-0x8(%ebp)
 8049788:	eb 13                	jmp    804979d <padding+0xce2>
 804978a:	8b 45 f8             	mov    -0x8(%ebp),%eax
 804978d:	8d 50 01             	lea    0x1(%eax),%edx
 8049790:	8b 45 fc             	mov    -0x4(%ebp),%eax
 8049793:	0f af c2             	imul   %edx,%eax
 8049796:	89 45 fc             	mov    %eax,-0x4(%ebp)
 8049799:	83 45 f8 01          	addl   $0x1,-0x8(%ebp)
 804979d:	83 7d f8 09          	cmpl   $0x9,-0x8(%ebp)
 80497a1:	7e e7                	jle    804978a <padding+0xccf>
 80497a3:	c7 45 f8 00 00 00 00 	movl   $0x0,-0x8(%ebp)
 80497aa:	eb 13                	jmp    80497bf <padding+0xd04>
 80497ac:	8b 45 f8             	mov    -0x8(%ebp),%eax
 80497af:	8d 50 01             	lea    0x1(%eax),%edx
 80497b2:	8b 45 fc             	mov    -0x4(%ebp),%eax
 80497b5:	0f af c2             	imul   %edx,%eax
 80497b8:	89 45 fc             	mov    %eax,-0x4(%ebp)
 80497bb:	83 45 f8 01          	addl   $0x1,-0x8(%ebp)
 80497bf:	83 7d f8 09          	cmpl   $0x9,-0x8(%ebp)
 80497c3:	7e e7                	jle    80497ac <padding+0xcf1>
 80497c5:	c7 45 f8 00 00 00 00 	movl   $0x0,-0x8(%ebp)
 80497cc:	eb 13                	jmp    80497e1 <padding+0xd26>
 80497ce:	8b 45 f8             	mov    -0x8(%ebp),%eax
 80497d1:	8d 50 01             	lea    0x1(%eax),%edx
 80497d4:	8b 45 fc             	mov    -0x4(%ebp),%eax
 80497d7:	0f af c2             	imul   %edx,%eax
 80497da:	89 45 fc             	mov    %eax,-0x4(%ebp)
 80497dd:	83 45 f8 01          	addl   $0x1,-0x8(%ebp)
 80497e1:	83 7d f8 09          	cmpl   $0x9,-0x8(%ebp)
 80497e5:	7e e7                	jle    80497ce <padding+0xd13>
 80497e7:	c7 45 f8 00 00 00 00 	movl   $0x0,-0x8(%ebp)
 80497ee:	eb 13                	jmp    8049803 <padding+0xd48>
 80497f0:	8b 45 f8             	mov    -0x8(%ebp),%eax
 80497f3:	8d 50 01             	lea    0x1(%eax),%edx
 80497f6:	8b 45 fc             	mov    -0x4(%ebp),%eax
 80497f9:	0f af c2             	imul   %edx,%eax
 80497fc:	89 45 fc             	mov    %eax,-0x4(%ebp)
 80497ff:	83 45 f8 01          	addl   $0x1,-0x8(%ebp)
 8049803:	83 7d f8 09          	cmpl   $0x9,-0x8(%ebp)
 8049807:	7e e7                	jle    80497f0 <padding+0xd35>
 8049809:	c7 45 f8 00 00 00 00 	movl   $0x0,-0x8(%ebp)
 8049810:	eb 13                	jmp    8049825 <padding+0xd6a>
 8049812:	8b 45 f8             	mov    -0x8(%ebp),%eax
 8049815:	8d 50 01             	lea    0x1(%eax),%edx
 8049818:	8b 45 fc             	mov    -0x4(%ebp),%eax
 804981b:	0f af c2             	imul   %edx,%eax
 804981e:	89 45 fc             	mov    %eax,-0x4(%ebp)
 8049821:	83 45 f8 01          	addl   $0x1,-0x8(%ebp)
 8049825:	83 7d f8 09          	cmpl   $0x9,-0x8(%ebp)
 8049829:	7e e7                	jle    8049812 <padding+0xd57>
 804982b:	c7 45 f8 00 00 00 00 	movl   $0x0,-0x8(%ebp)
 8049832:	eb 13                	jmp    8049847 <padding+0xd8c>
 8049834:	8b 45 f8             	mov    -0x8(%ebp),%eax
 8049837:	8d 50 01             	lea    0x1(%eax),%edx
 804983a:	8b 45 fc             	mov    -0x4(%ebp),%eax
 804983d:	0f af c2             	imul   %edx,%eax
 8049840:	89 45 fc             	mov    %eax,-0x4(%ebp)
 8049843:	83 45 f8 01          	addl   $0x1,-0x8(%ebp)
 8049847:	83 7d f8 09          	cmpl   $0x9,-0x8(%ebp)
 804984b:	7e e7                	jle    8049834 <padding+0xd79>
 804984d:	c7 45 f8 00 00 00 00 	movl   $0x0,-0x8(%ebp)
 8049854:	eb 13                	jmp    8049869 <padding+0xdae>
 8049856:	8b 45 f8             	mov    -0x8(%ebp),%eax
 8049859:	8d 50 01             	lea    0x1(%eax),%edx
 804985c:	8b 45 fc             	mov    -0x4(%ebp),%eax
 804985f:	0f af c2             	imul   %edx,%eax
 8049862:	89 45 fc             	mov    %eax,-0x4(%ebp)
 8049865:	83 45 f8 01          	addl   $0x1,-0x8(%ebp)
 8049869:	83 7d f8 09          	cmpl   $0x9,-0x8(%ebp)
 804986d:	7e e7                	jle    8049856 <padding+0xd9b>
 804986f:	c7 45 f8 00 00 00 00 	movl   $0x0,-0x8(%ebp)
 8049876:	eb 13                	jmp    804988b <padding+0xdd0>
 8049878:	8b 45 f8             	mov    -0x8(%ebp),%eax
 804987b:	8d 50 01             	lea    0x1(%eax),%edx
 804987e:	8b 45 fc             	mov    -0x4(%ebp),%eax
 8049881:	0f af c2             	imul   %edx,%eax
 8049884:	89 45 fc             	mov    %eax,-0x4(%ebp)
 8049887:	83 45 f8 01          	addl   $0x1,-0x8(%ebp)
 804988b:	83 7d f8 09          	cmpl   $0x9,-0x8(%ebp)
 804988f:	7e e7                	jle    8049878 <padding+0xdbd>
 8049891:	c7 45 f8 00 00 00 00 	movl   $0x0,-0x8(%ebp)
 8049898:	eb 13                	jmp    80498ad <padding+0xdf2>
 804989a:	8b 45 f8             	mov    -0x8(%ebp),%eax
 804989d:	8d 50 01             	lea    0x1(%eax),%edx
 80498a0:	8b 45 fc             	mov    -0x4(%ebp),%eax
 80498a3:	0f af c2             	imul   %edx,%eax
 80498a6:	89 45 fc             	mov    %eax,-0x4(%ebp)
 80498a9:	83 45 f8 01          	addl   $0x1,-0x8(%ebp)
 80498ad:	83 7d f8 09          	cmpl   $0x9,-0x8(%ebp)
 80498b1:	7e e7                	jle    804989a <padding+0xddf>
 80498b3:	c7 45 f8 00 00 00 00 	movl   $0x0,-0x8(%ebp)
 80498ba:	eb 13                	jmp    80498cf <padding+0xe14>
 80498bc:	8b 45 f8             	mov    -0x8(%ebp),%eax
 80498bf:	8d 50 01             	lea    0x1(%eax),%edx
 80498c2:	8b 45 fc             	mov    -0x4(%ebp),%eax
 80498c5:	0f af c2             	imul   %edx,%eax
 80498c8:	89 45 fc             	mov    %eax,-0x4(%ebp)
 80498cb:	83 45 f8 01          	addl   $0x1,-0x8(%ebp)
 80498cf:	83 7d f8 09          	cmpl   $0x9,-0x8(%ebp)
 80498d3:	7e e7                	jle    80498bc <padding+0xe01>
 80498d5:	c7 45 f8 00 00 00 00 	movl   $0x0,-0x8(%ebp)
 80498dc:	eb 13                	jmp    80498f1 <padding+0xe36>
 80498de:	8b 45 f8             	mov    -0x8(%ebp),%eax
 80498e1:	8d 50 01             	lea    0x1(%eax),%edx
 80498e4:	8b 45 fc             	mov    -0x4(%ebp),%eax
 80498e7:	0f af c2             	imul   %edx,%eax
 80498ea:	89 45 fc             	mov    %eax,-0x4(%ebp)
 80498ed:	83 45 f8 01          	addl   $0x1,-0x8(%ebp)
 80498f1:	83 7d f8 09          	cmpl   $0x9,-0x8(%ebp)
 80498f5:	7e e7                	jle    80498de <padding+0xe23>
 80498f7:	c7 45 f8 00 00 00 00 	movl   $0x0,-0x8(%ebp)
 80498fe:	eb 13                	jmp    8049913 <padding+0xe58>
 8049900:	8b 45 f8             	mov    -0x8(%ebp),%eax
 8049903:	8d 50 01             	lea    0x1(%eax),%edx
 8049906:	8b 45 fc             	mov    -0x4(%ebp),%eax
 8049909:	0f af c2             	imul   %edx,%eax
 804990c:	89 45 fc             	mov    %eax,-0x4(%ebp)
 804990f:	83 45 f8 01          	addl   $0x1,-0x8(%ebp)
 8049913:	83 7d f8 09          	cmpl   $0x9,-0x8(%ebp)
 8049917:	7e e7                	jle    8049900 <padding+0xe45>
 8049919:	c7 45 f8 00 00 00 00 	movl   $0x0,-0x8(%ebp)
 8049920:	eb 13                	jmp    8049935 <padding+0xe7a>
 8049922:	8b 45 f8             	mov    -0x8(%ebp),%eax
 8049925:	8d 50 01             	lea    0x1(%eax),%edx
 8049928:	8b 45 fc             	mov    -0x4(%ebp),%eax
 804992b:	0f af c2             	imul   %edx,%eax
 804992e:	89 45 fc             	mov    %eax,-0x4(%ebp)
 8049931:	83 45 f8 01          	addl   $0x1,-0x8(%ebp)
 8049935:	83 7d f8 09          	cmpl   $0x9,-0x8(%ebp)
 8049939:	7e e7                	jle    8049922 <padding+0xe67>
 804993b:	c7 45 f8 00 00 00 00 	movl   $0x0,-0x8(%ebp)
 8049942:	eb 13                	jmp    8049957 <padding+0xe9c>
 8049944:	8b 45 f8             	mov    -0x8(%ebp),%eax
 8049947:	8d 50 01             	lea    0x1(%eax),%edx
 804994a:	8b 45 fc             	mov    -0x4(%ebp),%eax
 804994d:	0f af c2             	imul   %edx,%eax
 8049950:	89 45 fc             	mov    %eax,-0x4(%ebp)
 8049953:	83 45 f8 01          	addl   $0x1,-0x8(%ebp)
 8049957:	83 7d f8 09          	cmpl   $0x9,-0x8(%ebp)
 804995b:	7e e7                	jle    8049944 <padding+0xe89>
 804995d:	c7 45 f8 00 00 00 00 	movl   $0x0,-0x8(%ebp)
 8049964:	eb 13                	jmp    8049979 <padding+0xebe>
 8049966:	8b 45 f8             	mov    -0x8(%ebp),%eax
 8049969:	8d 50 01             	lea    0x1(%eax),%edx
 804996c:	8b 45 fc             	mov    -0x4(%ebp),%eax
 804996f:	0f af c2             	imul   %edx,%eax
 8049972:	89 45 fc             	mov    %eax,-0x4(%ebp)
 8049975:	83 45 f8 01          	addl   $0x1,-0x8(%ebp)
 8049979:	83 7d f8 09          	cmpl   $0x9,-0x8(%ebp)
 804997d:	7e e7                	jle    8049966 <padding+0xeab>
 804997f:	c7 45 f8 00 00 00 00 	movl   $0x0,-0x8(%ebp)
 8049986:	eb 13                	jmp    804999b <padding+0xee0>
 8049988:	8b 45 f8             	mov    -0x8(%ebp),%eax
 804998b:	8d 50 01             	lea    0x1(%eax),%edx
 804998e:	8b 45 fc             	mov    -0x4(%ebp),%eax
 8049991:	0f af c2             	imul   %edx,%eax
 8049994:	89 45 fc             	mov    %eax,-0x4(%ebp)
 8049997:	83 45 f8 01          	addl   $0x1,-0x8(%ebp)
 804999b:	83 7d f8 09          	cmpl   $0x9,-0x8(%ebp)
 804999f:	7e e7                	jle    8049988 <padding+0xecd>
 80499a1:	c7 45 f8 00 00 00 00 	movl   $0x0,-0x8(%ebp)
 80499a8:	eb 13                	jmp    80499bd <padding+0xf02>
 80499aa:	8b 45 f8             	mov    -0x8(%ebp),%eax
 80499ad:	8d 50 01             	lea    0x1(%eax),%edx
 80499b0:	8b 45 fc             	mov    -0x4(%ebp),%eax
 80499b3:	0f af c2             	imul   %edx,%eax
 80499b6:	89 45 fc             	mov    %eax,-0x4(%ebp)
 80499b9:	83 45 f8 01          	addl   $0x1,-0x8(%ebp)
 80499bd:	83 7d f8 09          	cmpl   $0x9,-0x8(%ebp)
 80499c1:	7e e7                	jle    80499aa <padding+0xeef>
 80499c3:	c7 45 f8 00 00 00 00 	movl   $0x0,-0x8(%ebp)
 80499ca:	eb 13                	jmp    80499df <padding+0xf24>
 80499cc:	8b 45 f8             	mov    -0x8(%ebp),%eax
 80499cf:	8d 50 01             	lea    0x1(%eax),%edx
 80499d2:	8b 45 fc             	mov    -0x4(%ebp),%eax
 80499d5:	0f af c2             	imul   %edx,%eax
 80499d8:	89 45 fc             	mov    %eax,-0x4(%ebp)
 80499db:	83 45 f8 01          	addl   $0x1,-0x8(%ebp)
 80499df:	83 7d f8 09          	cmpl   $0x9,-0x8(%ebp)
 80499e3:	7e e7                	jle    80499cc <padding+0xf11>
 80499e5:	c7 45 f8 00 00 00 00 	movl   $0x0,-0x8(%ebp)
 80499ec:	eb 13                	jmp    8049a01 <padding+0xf46>
 80499ee:	8b 45 f8             	mov    -0x8(%ebp),%eax
 80499f1:	8d 50 01             	lea    0x1(%eax),%edx
 80499f4:	8b 45 fc             	mov    -0x4(%ebp),%eax
 80499f7:	0f af c2             	imul   %edx,%eax
 80499fa:	89 45 fc             	mov    %eax,-0x4(%ebp)
 80499fd:	83 45 f8 01          	addl   $0x1,-0x8(%ebp)
 8049a01:	83 7d f8 09          	cmpl   $0x9,-0x8(%ebp)
 8049a05:	7e e7                	jle    80499ee <padding+0xf33>
 8049a07:	c7 45 f8 00 00 00 00 	movl   $0x0,-0x8(%ebp)
 8049a0e:	eb 13                	jmp    8049a23 <padding+0xf68>
 8049a10:	8b 45 f8             	mov    -0x8(%ebp),%eax
 8049a13:	8d 50 01             	lea    0x1(%eax),%edx
 8049a16:	8b 45 fc             	mov    -0x4(%ebp),%eax
 8049a19:	0f af c2             	imul   %edx,%eax
 8049a1c:	89 45 fc             	mov    %eax,-0x4(%ebp)
 8049a1f:	83 45 f8 01          	addl   $0x1,-0x8(%ebp)
 8049a23:	83 7d f8 09          	cmpl   $0x9,-0x8(%ebp)
 8049a27:	7e e7                	jle    8049a10 <padding+0xf55>
 8049a29:	c7 45 f8 00 00 00 00 	movl   $0x0,-0x8(%ebp)
 8049a30:	eb 13                	jmp    8049a45 <padding+0xf8a>
 8049a32:	8b 45 f8             	mov    -0x8(%ebp),%eax
 8049a35:	8d 50 01             	lea    0x1(%eax),%edx
 8049a38:	8b 45 fc             	mov    -0x4(%ebp),%eax
 8049a3b:	0f af c2             	imul   %edx,%eax
 8049a3e:	89 45 fc             	mov    %eax,-0x4(%ebp)
 8049a41:	83 45 f8 01          	addl   $0x1,-0x8(%ebp)
 8049a45:	83 7d f8 09          	cmpl   $0x9,-0x8(%ebp)
 8049a49:	7e e7                	jle    8049a32 <padding+0xf77>
 8049a4b:	c7 45 f8 00 00 00 00 	movl   $0x0,-0x8(%ebp)
 8049a52:	eb 13                	jmp    8049a67 <padding+0xfac>
 8049a54:	8b 45 f8             	mov    -0x8(%ebp),%eax
 8049a57:	8d 50 01             	lea    0x1(%eax),%edx
 8049a5a:	8b 45 fc             	mov    -0x4(%ebp),%eax
 8049a5d:	0f af c2             	imul   %edx,%eax
 8049a60:	89 45 fc             	mov    %eax,-0x4(%ebp)
 8049a63:	83 45 f8 01          	addl   $0x1,-0x8(%ebp)
 8049a67:	83 7d f8 09          	cmpl   $0x9,-0x8(%ebp)
 8049a6b:	7e e7                	jle    8049a54 <padding+0xf99>
 8049a6d:	c7 45 f8 00 00 00 00 	movl   $0x0,-0x8(%ebp)
 8049a74:	eb 13                	jmp    8049a89 <padding+0xfce>
 8049a76:	8b 45 f8             	mov    -0x8(%ebp),%eax
 8049a79:	8d 50 01             	lea    0x1(%eax),%edx
 8049a7c:	8b 45 fc             	mov    -0x4(%ebp),%eax
 8049a7f:	0f af c2             	imul   %edx,%eax
 8049a82:	89 45 fc             	mov    %eax,-0x4(%ebp)
 8049a85:	83 45 f8 01          	addl   $0x1,-0x8(%ebp)
 8049a89:	83 7d f8 09          	cmpl   $0x9,-0x8(%ebp)
 8049a8d:	7e e7                	jle    8049a76 <padding+0xfbb>
 8049a8f:	c7 45 f8 00 00 00 00 	movl   $0x0,-0x8(%ebp)
 8049a96:	eb 13                	jmp    8049aab <padding+0xff0>
 8049a98:	8b 45 f8             	mov    -0x8(%ebp),%eax
 8049a9b:	8d 50 01             	lea    0x1(%eax),%edx
 8049a9e:	8b 45 fc             	mov    -0x4(%ebp),%eax
 8049aa1:	0f af c2             	imul   %edx,%eax
 8049aa4:	89 45 fc             	mov    %eax,-0x4(%ebp)
 8049aa7:	83 45 f8 01          	addl   $0x1,-0x8(%ebp)
 8049aab:	83 7d f8 09          	cmpl   $0x9,-0x8(%ebp)
 8049aaf:	7e e7                	jle    8049a98 <padding+0xfdd>
 8049ab1:	c7 45 f8 00 00 00 00 	movl   $0x0,-0x8(%ebp)
 8049ab8:	eb 13                	jmp    8049acd <padding+0x1012>
 8049aba:	8b 45 f8             	mov    -0x8(%ebp),%eax
 8049abd:	8d 50 01             	lea    0x1(%eax),%edx
 8049ac0:	8b 45 fc             	mov    -0x4(%ebp),%eax
 8049ac3:	0f af c2             	imul   %edx,%eax
 8049ac6:	89 45 fc             	mov    %eax,-0x4(%ebp)
 8049ac9:	83 45 f8 01          	addl   $0x1,-0x8(%ebp)
 8049acd:	83 7d f8 09          	cmpl   $0x9,-0x8(%ebp)
 8049ad1:	7e e7                	jle    8049aba <padding+0xfff>
 8049ad3:	c7 45 f8 00 00 00 00 	movl   $0x0,-0x8(%ebp)
 8049ada:	eb 13                	jmp    8049aef <padding+0x1034>
 8049adc:	8b 45 f8             	mov    -0x8(%ebp),%eax
 8049adf:	8d 50 01             	lea    0x1(%eax),%edx
 8049ae2:	8b 45 fc             	mov    -0x4(%ebp),%eax
 8049ae5:	0f af c2             	imul   %edx,%eax
 8049ae8:	89 45 fc             	mov    %eax,-0x4(%ebp)
 8049aeb:	83 45 f8 01          	addl   $0x1,-0x8(%ebp)
 8049aef:	83 7d f8 09          	cmpl   $0x9,-0x8(%ebp)
 8049af3:	7e e7                	jle    8049adc <padding+0x1021>
 8049af5:	c7 45 f8 00 00 00 00 	movl   $0x0,-0x8(%ebp)
 8049afc:	eb 13                	jmp    8049b11 <padding+0x1056>
 8049afe:	8b 45 f8             	mov    -0x8(%ebp),%eax
 8049b01:	8d 50 01             	lea    0x1(%eax),%edx
 8049b04:	8b 45 fc             	mov    -0x4(%ebp),%eax
 8049b07:	0f af c2             	imul   %edx,%eax
 8049b0a:	89 45 fc             	mov    %eax,-0x4(%ebp)
 8049b0d:	83 45 f8 01          	addl   $0x1,-0x8(%ebp)
 8049b11:	83 7d f8 09          	cmpl   $0x9,-0x8(%ebp)
 8049b15:	7e e7                	jle    8049afe <padding+0x1043>
 8049b17:	c7 45 f8 00 00 00 00 	movl   $0x0,-0x8(%ebp)
 8049b1e:	eb 13                	jmp    8049b33 <padding+0x1078>
 8049b20:	8b 45 f8             	mov    -0x8(%ebp),%eax
 8049b23:	8d 50 01             	lea    0x1(%eax),%edx
 8049b26:	8b 45 fc             	mov    -0x4(%ebp),%eax
 8049b29:	0f af c2             	imul   %edx,%eax
 8049b2c:	89 45 fc             	mov    %eax,-0x4(%ebp)
 8049b2f:	83 45 f8 01          	addl   $0x1,-0x8(%ebp)
 8049b33:	83 7d f8 09          	cmpl   $0x9,-0x8(%ebp)
 8049b37:	7e e7                	jle    8049b20 <padding+0x1065>
 8049b39:	c7 45 f8 00 00 00 00 	movl   $0x0,-0x8(%ebp)
 8049b40:	eb 13                	jmp    8049b55 <padding+0x109a>
 8049b42:	8b 45 f8             	mov    -0x8(%ebp),%eax
 8049b45:	8d 50 01             	lea    0x1(%eax),%edx
 8049b48:	8b 45 fc             	mov    -0x4(%ebp),%eax
 8049b4b:	0f af c2             	imul   %edx,%eax
 8049b4e:	89 45 fc             	mov    %eax,-0x4(%ebp)
 8049b51:	83 45 f8 01          	addl   $0x1,-0x8(%ebp)
 8049b55:	83 7d f8 09          	cmpl   $0x9,-0x8(%ebp)
 8049b59:	7e e7                	jle    8049b42 <padding+0x1087>
 8049b5b:	c7 45 f8 00 00 00 00 	movl   $0x0,-0x8(%ebp)
 8049b62:	eb 13                	jmp    8049b77 <padding+0x10bc>
 8049b64:	8b 45 f8             	mov    -0x8(%ebp),%eax
 8049b67:	8d 50 01             	lea    0x1(%eax),%edx
 8049b6a:	8b 45 fc             	mov    -0x4(%ebp),%eax
 8049b6d:	0f af c2             	imul   %edx,%eax
 8049b70:	89 45 fc             	mov    %eax,-0x4(%ebp)
 8049b73:	83 45 f8 01          	addl   $0x1,-0x8(%ebp)
 8049b77:	83 7d f8 09          	cmpl   $0x9,-0x8(%ebp)
 8049b7b:	7e e7                	jle    8049b64 <padding+0x10a9>
 8049b7d:	c7 45 f8 00 00 00 00 	movl   $0x0,-0x8(%ebp)
 8049b84:	eb 13                	jmp    8049b99 <padding+0x10de>
 8049b86:	8b 45 f8             	mov    -0x8(%ebp),%eax
 8049b89:	8d 50 01             	lea    0x1(%eax),%edx
 8049b8c:	8b 45 fc             	mov    -0x4(%ebp),%eax
 8049b8f:	0f af c2             	imul   %edx,%eax
 8049b92:	89 45 fc             	mov    %eax,-0x4(%ebp)
 8049b95:	83 45 f8 01          	addl   $0x1,-0x8(%ebp)
 8049b99:	83 7d f8 09          	cmpl   $0x9,-0x8(%ebp)
 8049b9d:	7e e7                	jle    8049b86 <padding+0x10cb>
 8049b9f:	c7 45 f8 00 00 00 00 	movl   $0x0,-0x8(%ebp)
 8049ba6:	eb 13                	jmp    8049bbb <padding+0x1100>
 8049ba8:	8b 45 f8             	mov    -0x8(%ebp),%eax
 8049bab:	8d 50 01             	lea    0x1(%eax),%edx
 8049bae:	8b 45 fc             	mov    -0x4(%ebp),%eax
 8049bb1:	0f af c2             	imul   %edx,%eax
 8049bb4:	89 45 fc             	mov    %eax,-0x4(%ebp)
 8049bb7:	83 45 f8 01          	addl   $0x1,-0x8(%ebp)
 8049bbb:	83 7d f8 09          	cmpl   $0x9,-0x8(%ebp)
 8049bbf:	7e e7                	jle    8049ba8 <padding+0x10ed>
 8049bc1:	c7 45 f8 00 00 00 00 	movl   $0x0,-0x8(%ebp)
 8049bc8:	eb 13                	jmp    8049bdd <padding+0x1122>
 8049bca:	8b 45 f8             	mov    -0x8(%ebp),%eax
 8049bcd:	8d 50 01             	lea    0x1(%eax),%edx
 8049bd0:	8b 45 fc             	mov    -0x4(%ebp),%eax
 8049bd3:	0f af c2             	imul   %edx,%eax
 8049bd6:	89 45 fc             	mov    %eax,-0x4(%ebp)
 8049bd9:	83 45 f8 01          	addl   $0x1,-0x8(%ebp)
 8049bdd:	83 7d f8 09          	cmpl   $0x9,-0x8(%ebp)
 8049be1:	7e e7                	jle    8049bca <padding+0x110f>
 8049be3:	c7 45 f8 00 00 00 00 	movl   $0x0,-0x8(%ebp)
 8049bea:	eb 13                	jmp    8049bff <padding+0x1144>
 8049bec:	8b 45 f8             	mov    -0x8(%ebp),%eax
 8049bef:	8d 50 01             	lea    0x1(%eax),%edx
 8049bf2:	8b 45 fc             	mov    -0x4(%ebp),%eax
 8049bf5:	0f af c2             	imul   %edx,%eax
 8049bf8:	89 45 fc             	mov    %eax,-0x4(%ebp)
 8049bfb:	83 45 f8 01          	addl   $0x1,-0x8(%ebp)
 8049bff:	83 7d f8 09          	cmpl   $0x9,-0x8(%ebp)
 8049c03:	7e e7                	jle    8049bec <padding+0x1131>
 8049c05:	c7 45 f8 00 00 00 00 	movl   $0x0,-0x8(%ebp)
 8049c0c:	eb 13                	jmp    8049c21 <padding+0x1166>
 8049c0e:	8b 45 f8             	mov    -0x8(%ebp),%eax
 8049c11:	8d 50 01             	lea    0x1(%eax),%edx
 8049c14:	8b 45 fc             	mov    -0x4(%ebp),%eax
 8049c17:	0f af c2             	imul   %edx,%eax
 8049c1a:	89 45 fc             	mov    %eax,-0x4(%ebp)
 8049c1d:	83 45 f8 01          	addl   $0x1,-0x8(%ebp)
 8049c21:	83 7d f8 09          	cmpl   $0x9,-0x8(%ebp)
 8049c25:	7e e7                	jle    8049c0e <padding+0x1153>
 8049c27:	c7 45 f8 00 00 00 00 	movl   $0x0,-0x8(%ebp)
 8049c2e:	eb 13                	jmp    8049c43 <padding+0x1188>
 8049c30:	8b 45 f8             	mov    -0x8(%ebp),%eax
 8049c33:	8d 50 01             	lea    0x1(%eax),%edx
 8049c36:	8b 45 fc             	mov    -0x4(%ebp),%eax
 8049c39:	0f af c2             	imul   %edx,%eax
 8049c3c:	89 45 fc             	mov    %eax,-0x4(%ebp)
 8049c3f:	83 45 f8 01          	addl   $0x1,-0x8(%ebp)
 8049c43:	83 7d f8 09          	cmpl   $0x9,-0x8(%ebp)
 8049c47:	7e e7                	jle    8049c30 <padding+0x1175>
 8049c49:	c7 45 f8 00 00 00 00 	movl   $0x0,-0x8(%ebp)
 8049c50:	eb 13                	jmp    8049c65 <padding+0x11aa>
 8049c52:	8b 45 f8             	mov    -0x8(%ebp),%eax
 8049c55:	8d 50 01             	lea    0x1(%eax),%edx
 8049c58:	8b 45 fc             	mov    -0x4(%ebp),%eax
 8049c5b:	0f af c2             	imul   %edx,%eax
 8049c5e:	89 45 fc             	mov    %eax,-0x4(%ebp)
 8049c61:	83 45 f8 01          	addl   $0x1,-0x8(%ebp)
 8049c65:	83 7d f8 09          	cmpl   $0x9,-0x8(%ebp)
 8049c69:	7e e7                	jle    8049c52 <padding+0x1197>
 8049c6b:	c7 45 f8 00 00 00 00 	movl   $0x0,-0x8(%ebp)
 8049c72:	eb 13                	jmp    8049c87 <padding+0x11cc>
 8049c74:	8b 45 f8             	mov    -0x8(%ebp),%eax
 8049c77:	8d 50 01             	lea    0x1(%eax),%edx
 8049c7a:	8b 45 fc             	mov    -0x4(%ebp),%eax
 8049c7d:	0f af c2             	imul   %edx,%eax
 8049c80:	89 45 fc             	mov    %eax,-0x4(%ebp)
 8049c83:	83 45 f8 01          	addl   $0x1,-0x8(%ebp)
 8049c87:	83 7d f8 09          	cmpl   $0x9,-0x8(%ebp)
 8049c8b:	7e e7                	jle    8049c74 <padding+0x11b9>
 8049c8d:	c7 45 f8 00 00 00 00 	movl   $0x0,-0x8(%ebp)
 8049c94:	eb 13                	jmp    8049ca9 <padding+0x11ee>
 8049c96:	8b 45 f8             	mov    -0x8(%ebp),%eax
 8049c99:	8d 50 01             	lea    0x1(%eax),%edx
 8049c9c:	8b 45 fc             	mov    -0x4(%ebp),%eax
 8049c9f:	0f af c2             	imul   %edx,%eax
 8049ca2:	89 45 fc             	mov    %eax,-0x4(%ebp)
 8049ca5:	83 45 f8 01          	addl   $0x1,-0x8(%ebp)
 8049ca9:	83 7d f8 09          	cmpl   $0x9,-0x8(%ebp)
 8049cad:	7e e7                	jle    8049c96 <padding+0x11db>
 8049caf:	c7 45 f8 00 00 00 00 	movl   $0x0,-0x8(%ebp)
 8049cb6:	eb 13                	jmp    8049ccb <padding+0x1210>
 8049cb8:	8b 45 f8             	mov    -0x8(%ebp),%eax
 8049cbb:	8d 50 01             	lea    0x1(%eax),%edx
 8049cbe:	8b 45 fc             	mov    -0x4(%ebp),%eax
 8049cc1:	0f af c2             	imul   %edx,%eax
 8049cc4:	89 45 fc             	mov    %eax,-0x4(%ebp)
 8049cc7:	83 45 f8 01          	addl   $0x1,-0x8(%ebp)
 8049ccb:	83 7d f8 09          	cmpl   $0x9,-0x8(%ebp)
 8049ccf:	7e e7                	jle    8049cb8 <padding+0x11fd>
 8049cd1:	c7 45 f8 00 00 00 00 	movl   $0x0,-0x8(%ebp)
 8049cd8:	eb 13                	jmp    8049ced <padding+0x1232>
 8049cda:	8b 45 f8             	mov    -0x8(%ebp),%eax
 8049cdd:	8d 50 01             	lea    0x1(%eax),%edx
 8049ce0:	8b 45 fc             	mov    -0x4(%ebp),%eax
 8049ce3:	0f af c2             	imul   %edx,%eax
 8049ce6:	89 45 fc             	mov    %eax,-0x4(%ebp)
 8049ce9:	83 45 f8 01          	addl   $0x1,-0x8(%ebp)
 8049ced:	83 7d f8 09          	cmpl   $0x9,-0x8(%ebp)
 8049cf1:	7e e7                	jle    8049cda <padding+0x121f>
 8049cf3:	c7 45 f8 00 00 00 00 	movl   $0x0,-0x8(%ebp)
 8049cfa:	eb 13                	jmp    8049d0f <padding+0x1254>
 8049cfc:	8b 45 f8             	mov    -0x8(%ebp),%eax
 8049cff:	8d 50 01             	lea    0x1(%eax),%edx
 8049d02:	8b 45 fc             	mov    -0x4(%ebp),%eax
 8049d05:	0f af c2             	imul   %edx,%eax
 8049d08:	89 45 fc             	mov    %eax,-0x4(%ebp)
 8049d0b:	83 45 f8 01          	addl   $0x1,-0x8(%ebp)
 8049d0f:	83 7d f8 09          	cmpl   $0x9,-0x8(%ebp)
 8049d13:	7e e7                	jle    8049cfc <padding+0x1241>
 8049d15:	c7 45 f8 00 00 00 00 	movl   $0x0,-0x8(%ebp)
 8049d1c:	eb 13                	jmp    8049d31 <padding+0x1276>
 8049d1e:	8b 45 f8             	mov    -0x8(%ebp),%eax
 8049d21:	8d 50 01             	lea    0x1(%eax),%edx
 8049d24:	8b 45 fc             	mov    -0x4(%ebp),%eax
 8049d27:	0f af c2             	imul   %edx,%eax
 8049d2a:	89 45 fc             	mov    %eax,-0x4(%ebp)
 8049d2d:	83 45 f8 01          	addl   $0x1,-0x8(%ebp)
 8049d31:	83 7d f8 09          	cmpl   $0x9,-0x8(%ebp)
 8049d35:	7e e7                	jle    8049d1e <padding+0x1263>
 8049d37:	c7 45 f8 00 00 00 00 	movl   $0x0,-0x8(%ebp)
 8049d3e:	eb 13                	jmp    8049d53 <padding+0x1298>
 8049d40:	8b 45 f8             	mov    -0x8(%ebp),%eax
 8049d43:	8d 50 01             	lea    0x1(%eax),%edx
 8049d46:	8b 45 fc             	mov    -0x4(%ebp),%eax
 8049d49:	0f af c2             	imul   %edx,%eax
 8049d4c:	89 45 fc             	mov    %eax,-0x4(%ebp)
 8049d4f:	83 45 f8 01          	addl   $0x1,-0x8(%ebp)
 8049d53:	83 7d f8 09          	cmpl   $0x9,-0x8(%ebp)
 8049d57:	7e e7                	jle    8049d40 <padding+0x1285>
 8049d59:	c7 45 f8 00 00 00 00 	movl   $0x0,-0x8(%ebp)
 8049d60:	eb 13                	jmp    8049d75 <padding+0x12ba>
 8049d62:	8b 45 f8             	mov    -0x8(%ebp),%eax
 8049d65:	8d 50 01             	lea    0x1(%eax),%edx
 8049d68:	8b 45 fc             	mov    -0x4(%ebp),%eax
 8049d6b:	0f af c2             	imul   %edx,%eax
 8049d6e:	89 45 fc             	mov    %eax,-0x4(%ebp)
 8049d71:	83 45 f8 01          	addl   $0x1,-0x8(%ebp)
 8049d75:	83 7d f8 09          	cmpl   $0x9,-0x8(%ebp)
 8049d79:	7e e7                	jle    8049d62 <padding+0x12a7>
 8049d7b:	c7 45 f8 00 00 00 00 	movl   $0x0,-0x8(%ebp)
 8049d82:	eb 13                	jmp    8049d97 <padding+0x12dc>
 8049d84:	8b 45 f8             	mov    -0x8(%ebp),%eax
 8049d87:	8d 50 01             	lea    0x1(%eax),%edx
 8049d8a:	8b 45 fc             	mov    -0x4(%ebp),%eax
 8049d8d:	0f af c2             	imul   %edx,%eax
 8049d90:	89 45 fc             	mov    %eax,-0x4(%ebp)
 8049d93:	83 45 f8 01          	addl   $0x1,-0x8(%ebp)
 8049d97:	83 7d f8 09          	cmpl   $0x9,-0x8(%ebp)
 8049d9b:	7e e7                	jle    8049d84 <padding+0x12c9>
 8049d9d:	c7 45 f8 00 00 00 00 	movl   $0x0,-0x8(%ebp)
 8049da4:	eb 13                	jmp    8049db9 <padding+0x12fe>
 8049da6:	8b 45 f8             	mov    -0x8(%ebp),%eax
 8049da9:	8d 50 01             	lea    0x1(%eax),%edx
 8049dac:	8b 45 fc             	mov    -0x4(%ebp),%eax
 8049daf:	0f af c2             	imul   %edx,%eax
 8049db2:	89 45 fc             	mov    %eax,-0x4(%ebp)
 8049db5:	83 45 f8 01          	addl   $0x1,-0x8(%ebp)
 8049db9:	83 7d f8 09          	cmpl   $0x9,-0x8(%ebp)
 8049dbd:	7e e7                	jle    8049da6 <padding+0x12eb>
 8049dbf:	c7 45 f8 00 00 00 00 	movl   $0x0,-0x8(%ebp)
 8049dc6:	eb 13                	jmp    8049ddb <padding+0x1320>
 8049dc8:	8b 45 f8             	mov    -0x8(%ebp),%eax
 8049dcb:	8d 50 01             	lea    0x1(%eax),%edx
 8049dce:	8b 45 fc             	mov    -0x4(%ebp),%eax
 8049dd1:	0f af c2             	imul   %edx,%eax
 8049dd4:	89 45 fc             	mov    %eax,-0x4(%ebp)
 8049dd7:	83 45 f8 01          	addl   $0x1,-0x8(%ebp)
 8049ddb:	83 7d f8 09          	cmpl   $0x9,-0x8(%ebp)
 8049ddf:	7e e7                	jle    8049dc8 <padding+0x130d>
 8049de1:	c7 45 f8 00 00 00 00 	movl   $0x0,-0x8(%ebp)
 8049de8:	eb 13                	jmp    8049dfd <padding+0x1342>
 8049dea:	8b 45 f8             	mov    -0x8(%ebp),%eax
 8049ded:	8d 50 01             	lea    0x1(%eax),%edx
 8049df0:	8b 45 fc             	mov    -0x4(%ebp),%eax
 8049df3:	0f af c2             	imul   %edx,%eax
 8049df6:	89 45 fc             	mov    %eax,-0x4(%ebp)
 8049df9:	83 45 f8 01          	addl   $0x1,-0x8(%ebp)
 8049dfd:	83 7d f8 09          	cmpl   $0x9,-0x8(%ebp)
 8049e01:	7e e7                	jle    8049dea <padding+0x132f>
 8049e03:	c7 45 f8 00 00 00 00 	movl   $0x0,-0x8(%ebp)
 8049e0a:	eb 13                	jmp    8049e1f <padding+0x1364>
 8049e0c:	8b 45 f8             	mov    -0x8(%ebp),%eax
 8049e0f:	8d 50 01             	lea    0x1(%eax),%edx
 8049e12:	8b 45 fc             	mov    -0x4(%ebp),%eax
 8049e15:	0f af c2             	imul   %edx,%eax
 8049e18:	89 45 fc             	mov    %eax,-0x4(%ebp)
 8049e1b:	83 45 f8 01          	addl   $0x1,-0x8(%ebp)
 8049e1f:	83 7d f8 09          	cmpl   $0x9,-0x8(%ebp)
 8049e23:	7e e7                	jle    8049e0c <padding+0x1351>
 8049e25:	c7 45 f8 00 00 00 00 	movl   $0x0,-0x8(%ebp)
 8049e2c:	eb 13                	jmp    8049e41 <padding+0x1386>
 8049e2e:	8b 45 f8             	mov    -0x8(%ebp),%eax
 8049e31:	8d 50 01             	lea    0x1(%eax),%edx
 8049e34:	8b 45 fc             	mov    -0x4(%ebp),%eax
 8049e37:	0f af c2             	imul   %edx,%eax
 8049e3a:	89 45 fc             	mov    %eax,-0x4(%ebp)
 8049e3d:	83 45 f8 01          	addl   $0x1,-0x8(%ebp)
 8049e41:	83 7d f8 09          	cmpl   $0x9,-0x8(%ebp)
 8049e45:	7e e7                	jle    8049e2e <padding+0x1373>
 8049e47:	c7 45 f8 00 00 00 00 	movl   $0x0,-0x8(%ebp)
 8049e4e:	eb 13                	jmp    8049e63 <padding+0x13a8>
 8049e50:	8b 45 f8             	mov    -0x8(%ebp),%eax
 8049e53:	8d 50 01             	lea    0x1(%eax),%edx
 8049e56:	8b 45 fc             	mov    -0x4(%ebp),%eax
 8049e59:	0f af c2             	imul   %edx,%eax
 8049e5c:	89 45 fc             	mov    %eax,-0x4(%ebp)
 8049e5f:	83 45 f8 01          	addl   $0x1,-0x8(%ebp)
 8049e63:	83 7d f8 09          	cmpl   $0x9,-0x8(%ebp)
 8049e67:	7e e7                	jle    8049e50 <padding+0x1395>
 8049e69:	c7 45 f8 00 00 00 00 	movl   $0x0,-0x8(%ebp)
 8049e70:	eb 13                	jmp    8049e85 <padding+0x13ca>
 8049e72:	8b 45 f8             	mov    -0x8(%ebp),%eax
 8049e75:	8d 50 01             	lea    0x1(%eax),%edx
 8049e78:	8b 45 fc             	mov    -0x4(%ebp),%eax
 8049e7b:	0f af c2             	imul   %edx,%eax
 8049e7e:	89 45 fc             	mov    %eax,-0x4(%ebp)
 8049e81:	83 45 f8 01          	addl   $0x1,-0x8(%ebp)
 8049e85:	83 7d f8 09          	cmpl   $0x9,-0x8(%ebp)
 8049e89:	7e e7                	jle    8049e72 <padding+0x13b7>
 8049e8b:	c7 45 f8 00 00 00 00 	movl   $0x0,-0x8(%ebp)
 8049e92:	eb 13                	jmp    8049ea7 <padding+0x13ec>
 8049e94:	8b 45 f8             	mov    -0x8(%ebp),%eax
 8049e97:	8d 50 01             	lea    0x1(%eax),%edx
 8049e9a:	8b 45 fc             	mov    -0x4(%ebp),%eax
 8049e9d:	0f af c2             	imul   %edx,%eax
 8049ea0:	89 45 fc             	mov    %eax,-0x4(%ebp)
 8049ea3:	83 45 f8 01          	addl   $0x1,-0x8(%ebp)
 8049ea7:	83 7d f8 09          	cmpl   $0x9,-0x8(%ebp)
 8049eab:	7e e7                	jle    8049e94 <padding+0x13d9>
 8049ead:	c7 45 f8 00 00 00 00 	movl   $0x0,-0x8(%ebp)
 8049eb4:	eb 13                	jmp    8049ec9 <padding+0x140e>
 8049eb6:	8b 45 f8             	mov    -0x8(%ebp),%eax
 8049eb9:	8d 50 01             	lea    0x1(%eax),%edx
 8049ebc:	8b 45 fc             	mov    -0x4(%ebp),%eax
 8049ebf:	0f af c2             	imul   %edx,%eax
 8049ec2:	89 45 fc             	mov    %eax,-0x4(%ebp)
 8049ec5:	83 45 f8 01          	addl   $0x1,-0x8(%ebp)
 8049ec9:	83 7d f8 09          	cmpl   $0x9,-0x8(%ebp)
 8049ecd:	7e e7                	jle    8049eb6 <padding+0x13fb>
 8049ecf:	c7 45 f8 00 00 00 00 	movl   $0x0,-0x8(%ebp)
 8049ed6:	eb 13                	jmp    8049eeb <padding+0x1430>
 8049ed8:	8b 45 f8             	mov    -0x8(%ebp),%eax
 8049edb:	8d 50 01             	lea    0x1(%eax),%edx
 8049ede:	8b 45 fc             	mov    -0x4(%ebp),%eax
 8049ee1:	0f af c2             	imul   %edx,%eax
 8049ee4:	89 45 fc             	mov    %eax,-0x4(%ebp)
 8049ee7:	83 45 f8 01          	addl   $0x1,-0x8(%ebp)
 8049eeb:	83 7d f8 09          	cmpl   $0x9,-0x8(%ebp)
 8049eef:	7e e7                	jle    8049ed8 <padding+0x141d>
 8049ef1:	c7 45 f8 00 00 00 00 	movl   $0x0,-0x8(%ebp)
 8049ef8:	eb 13                	jmp    8049f0d <padding+0x1452>
 8049efa:	8b 45 f8             	mov    -0x8(%ebp),%eax
 8049efd:	8d 50 01             	lea    0x1(%eax),%edx
 8049f00:	8b 45 fc             	mov    -0x4(%ebp),%eax
 8049f03:	0f af c2             	imul   %edx,%eax
 8049f06:	89 45 fc             	mov    %eax,-0x4(%ebp)
 8049f09:	83 45 f8 01          	addl   $0x1,-0x8(%ebp)
 8049f0d:	83 7d f8 09          	cmpl   $0x9,-0x8(%ebp)
 8049f11:	7e e7                	jle    8049efa <padding+0x143f>
 8049f13:	c7 45 f8 00 00 00 00 	movl   $0x0,-0x8(%ebp)
 8049f1a:	eb 13                	jmp    8049f2f <padding+0x1474>
 8049f1c:	8b 45 f8             	mov    -0x8(%ebp),%eax
 8049f1f:	8d 50 01             	lea    0x1(%eax),%edx
 8049f22:	8b 45 fc             	mov    -0x4(%ebp),%eax
 8049f25:	0f af c2             	imul   %edx,%eax
 8049f28:	89 45 fc             	mov    %eax,-0x4(%ebp)
 8049f2b:	83 45 f8 01          	addl   $0x1,-0x8(%ebp)
 8049f2f:	83 7d f8 09          	cmpl   $0x9,-0x8(%ebp)
 8049f33:	7e e7                	jle    8049f1c <padding+0x1461>
 8049f35:	c7 45 f8 00 00 00 00 	movl   $0x0,-0x8(%ebp)
 8049f3c:	eb 13                	jmp    8049f51 <padding+0x1496>
 8049f3e:	8b 45 f8             	mov    -0x8(%ebp),%eax
 8049f41:	8d 50 01             	lea    0x1(%eax),%edx
 8049f44:	8b 45 fc             	mov    -0x4(%ebp),%eax
 8049f47:	0f af c2             	imul   %edx,%eax
 8049f4a:	89 45 fc             	mov    %eax,-0x4(%ebp)
 8049f4d:	83 45 f8 01          	addl   $0x1,-0x8(%ebp)
 8049f51:	83 7d f8 09          	cmpl   $0x9,-0x8(%ebp)
 8049f55:	7e e7                	jle    8049f3e <padding+0x1483>
 8049f57:	c7 45 f8 00 00 00 00 	movl   $0x0,-0x8(%ebp)
 8049f5e:	eb 13                	jmp    8049f73 <padding+0x14b8>
 8049f60:	8b 45 f8             	mov    -0x8(%ebp),%eax
 8049f63:	8d 50 01             	lea    0x1(%eax),%edx
 8049f66:	8b 45 fc             	mov    -0x4(%ebp),%eax
 8049f69:	0f af c2             	imul   %edx,%eax
 8049f6c:	89 45 fc             	mov    %eax,-0x4(%ebp)
 8049f6f:	83 45 f8 01          	addl   $0x1,-0x8(%ebp)
 8049f73:	83 7d f8 09          	cmpl   $0x9,-0x8(%ebp)
 8049f77:	7e e7                	jle    8049f60 <padding+0x14a5>
 8049f79:	c7 45 f8 00 00 00 00 	movl   $0x0,-0x8(%ebp)
 8049f80:	eb 13                	jmp    8049f95 <padding+0x14da>
 8049f82:	8b 45 f8             	mov    -0x8(%ebp),%eax
 8049f85:	8d 50 01             	lea    0x1(%eax),%edx
 8049f88:	8b 45 fc             	mov    -0x4(%ebp),%eax
 8049f8b:	0f af c2             	imul   %edx,%eax
 8049f8e:	89 45 fc             	mov    %eax,-0x4(%ebp)
 8049f91:	83 45 f8 01          	addl   $0x1,-0x8(%ebp)
 8049f95:	83 7d f8 09          	cmpl   $0x9,-0x8(%ebp)
 8049f99:	7e e7                	jle    8049f82 <padding+0x14c7>
 8049f9b:	c7 45 f8 00 00 00 00 	movl   $0x0,-0x8(%ebp)
 8049fa2:	eb 13                	jmp    8049fb7 <padding+0x14fc>
 8049fa4:	8b 45 f8             	mov    -0x8(%ebp),%eax
 8049fa7:	8d 50 01             	lea    0x1(%eax),%edx
 8049faa:	8b 45 fc             	mov    -0x4(%ebp),%eax
 8049fad:	0f af c2             	imul   %edx,%eax
 8049fb0:	89 45 fc             	mov    %eax,-0x4(%ebp)
 8049fb3:	83 45 f8 01          	addl   $0x1,-0x8(%ebp)
 8049fb7:	83 7d f8 09          	cmpl   $0x9,-0x8(%ebp)
 8049fbb:	7e e7                	jle    8049fa4 <padding+0x14e9>
 8049fbd:	c7 45 f8 00 00 00 00 	movl   $0x0,-0x8(%ebp)
 8049fc4:	eb 13                	jmp    8049fd9 <padding+0x151e>
 8049fc6:	8b 45 f8             	mov    -0x8(%ebp),%eax
 8049fc9:	8d 50 01             	lea    0x1(%eax),%edx
 8049fcc:	8b 45 fc             	mov    -0x4(%ebp),%eax
 8049fcf:	0f af c2             	imul   %edx,%eax
 8049fd2:	89 45 fc             	mov    %eax,-0x4(%ebp)
 8049fd5:	83 45 f8 01          	addl   $0x1,-0x8(%ebp)
 8049fd9:	83 7d f8 09          	cmpl   $0x9,-0x8(%ebp)
 8049fdd:	7e e7                	jle    8049fc6 <padding+0x150b>
 8049fdf:	c7 45 f8 00 00 00 00 	movl   $0x0,-0x8(%ebp)
 8049fe6:	eb 13                	jmp    8049ffb <padding+0x1540>
 8049fe8:	8b 45 f8             	mov    -0x8(%ebp),%eax
 8049feb:	8d 50 01             	lea    0x1(%eax),%edx
 8049fee:	8b 45 fc             	mov    -0x4(%ebp),%eax
 8049ff1:	0f af c2             	imul   %edx,%eax
 8049ff4:	89 45 fc             	mov    %eax,-0x4(%ebp)
 8049ff7:	83 45 f8 01          	addl   $0x1,-0x8(%ebp)
 8049ffb:	83 7d f8 09          	cmpl   $0x9,-0x8(%ebp)
 8049fff:	7e e7                	jle    8049fe8 <padding+0x152d>
 804a001:	c7 45 f8 00 00 00 00 	movl   $0x0,-0x8(%ebp)
 804a008:	eb 13                	jmp    804a01d <padding+0x1562>
 804a00a:	8b 45 f8             	mov    -0x8(%ebp),%eax
 804a00d:	8d 50 01             	lea    0x1(%eax),%edx
 804a010:	8b 45 fc             	mov    -0x4(%ebp),%eax
 804a013:	0f af c2             	imul   %edx,%eax
 804a016:	89 45 fc             	mov    %eax,-0x4(%ebp)
 804a019:	83 45 f8 01          	addl   $0x1,-0x8(%ebp)
 804a01d:	83 7d f8 09          	cmpl   $0x9,-0x8(%ebp)
 804a021:	7e e7                	jle    804a00a <padding+0x154f>
 804a023:	c7 45 f8 00 00 00 00 	movl   $0x0,-0x8(%ebp)
 804a02a:	eb 13                	jmp    804a03f <padding+0x1584>
 804a02c:	8b 45 f8             	mov    -0x8(%ebp),%eax
 804a02f:	8d 50 01             	lea    0x1(%eax),%edx
 804a032:	8b 45 fc             	mov    -0x4(%ebp),%eax
 804a035:	0f af c2             	imul   %edx,%eax
 804a038:	89 45 fc             	mov    %eax,-0x4(%ebp)
 804a03b:	83 45 f8 01          	addl   $0x1,-0x8(%ebp)
 804a03f:	83 7d f8 09          	cmpl   $0x9,-0x8(%ebp)
 804a043:	7e e7                	jle    804a02c <padding+0x1571>
 804a045:	c7 45 f8 00 00 00 00 	movl   $0x0,-0x8(%ebp)
 804a04c:	eb 13                	jmp    804a061 <padding+0x15a6>
 804a04e:	8b 45 f8             	mov    -0x8(%ebp),%eax
 804a051:	8d 50 01             	lea    0x1(%eax),%edx
 804a054:	8b 45 fc             	mov    -0x4(%ebp),%eax
 804a057:	0f af c2             	imul   %edx,%eax
 804a05a:	89 45 fc             	mov    %eax,-0x4(%ebp)
 804a05d:	83 45 f8 01          	addl   $0x1,-0x8(%ebp)
 804a061:	83 7d f8 09          	cmpl   $0x9,-0x8(%ebp)
 804a065:	7e e7                	jle    804a04e <padding+0x1593>
 804a067:	c7 45 f8 00 00 00 00 	movl   $0x0,-0x8(%ebp)
 804a06e:	eb 13                	jmp    804a083 <padding+0x15c8>
 804a070:	8b 45 f8             	mov    -0x8(%ebp),%eax
 804a073:	8d 50 01             	lea    0x1(%eax),%edx
 804a076:	8b 45 fc             	mov    -0x4(%ebp),%eax
 804a079:	0f af c2             	imul   %edx,%eax
 804a07c:	89 45 fc             	mov    %eax,-0x4(%ebp)
 804a07f:	83 45 f8 01          	addl   $0x1,-0x8(%ebp)
 804a083:	83 7d f8 09          	cmpl   $0x9,-0x8(%ebp)
 804a087:	7e e7                	jle    804a070 <padding+0x15b5>
 804a089:	c7 45 f8 00 00 00 00 	movl   $0x0,-0x8(%ebp)
 804a090:	eb 13                	jmp    804a0a5 <padding+0x15ea>
 804a092:	8b 45 f8             	mov    -0x8(%ebp),%eax
 804a095:	8d 50 01             	lea    0x1(%eax),%edx
 804a098:	8b 45 fc             	mov    -0x4(%ebp),%eax
 804a09b:	0f af c2             	imul   %edx,%eax
 804a09e:	89 45 fc             	mov    %eax,-0x4(%ebp)
 804a0a1:	83 45 f8 01          	addl   $0x1,-0x8(%ebp)
 804a0a5:	83 7d f8 09          	cmpl   $0x9,-0x8(%ebp)
 804a0a9:	7e e7                	jle    804a092 <padding+0x15d7>
 804a0ab:	c7 45 f8 00 00 00 00 	movl   $0x0,-0x8(%ebp)
 804a0b2:	eb 13                	jmp    804a0c7 <padding+0x160c>
 804a0b4:	8b 45 f8             	mov    -0x8(%ebp),%eax
 804a0b7:	8d 50 01             	lea    0x1(%eax),%edx
 804a0ba:	8b 45 fc             	mov    -0x4(%ebp),%eax
 804a0bd:	0f af c2             	imul   %edx,%eax
 804a0c0:	89 45 fc             	mov    %eax,-0x4(%ebp)
 804a0c3:	83 45 f8 01          	addl   $0x1,-0x8(%ebp)
 804a0c7:	83 7d f8 09          	cmpl   $0x9,-0x8(%ebp)
 804a0cb:	7e e7                	jle    804a0b4 <padding+0x15f9>
 804a0cd:	c7 45 f8 00 00 00 00 	movl   $0x0,-0x8(%ebp)
 804a0d4:	eb 13                	jmp    804a0e9 <padding+0x162e>
 804a0d6:	8b 45 f8             	mov    -0x8(%ebp),%eax
 804a0d9:	8d 50 01             	lea    0x1(%eax),%edx
 804a0dc:	8b 45 fc             	mov    -0x4(%ebp),%eax
 804a0df:	0f af c2             	imul   %edx,%eax
 804a0e2:	89 45 fc             	mov    %eax,-0x4(%ebp)
 804a0e5:	83 45 f8 01          	addl   $0x1,-0x8(%ebp)
 804a0e9:	83 7d f8 09          	cmpl   $0x9,-0x8(%ebp)
 804a0ed:	7e e7                	jle    804a0d6 <padding+0x161b>
 804a0ef:	c7 45 f8 00 00 00 00 	movl   $0x0,-0x8(%ebp)
 804a0f6:	eb 13                	jmp    804a10b <padding+0x1650>
 804a0f8:	8b 45 f8             	mov    -0x8(%ebp),%eax
 804a0fb:	8d 50 01             	lea    0x1(%eax),%edx
 804a0fe:	8b 45 fc             	mov    -0x4(%ebp),%eax
 804a101:	0f af c2             	imul   %edx,%eax
 804a104:	89 45 fc             	mov    %eax,-0x4(%ebp)
 804a107:	83 45 f8 01          	addl   $0x1,-0x8(%ebp)
 804a10b:	83 7d f8 09          	cmpl   $0x9,-0x8(%ebp)
 804a10f:	7e e7                	jle    804a0f8 <padding+0x163d>
 804a111:	c7 45 f8 00 00 00 00 	movl   $0x0,-0x8(%ebp)
 804a118:	eb 13                	jmp    804a12d <padding+0x1672>
 804a11a:	8b 45 f8             	mov    -0x8(%ebp),%eax
 804a11d:	8d 50 01             	lea    0x1(%eax),%edx
 804a120:	8b 45 fc             	mov    -0x4(%ebp),%eax
 804a123:	0f af c2             	imul   %edx,%eax
 804a126:	89 45 fc             	mov    %eax,-0x4(%ebp)
 804a129:	83 45 f8 01          	addl   $0x1,-0x8(%ebp)
 804a12d:	83 7d f8 09          	cmpl   $0x9,-0x8(%ebp)
 804a131:	7e e7                	jle    804a11a <padding+0x165f>
 804a133:	c7 45 f8 00 00 00 00 	movl   $0x0,-0x8(%ebp)
 804a13a:	eb 13                	jmp    804a14f <padding+0x1694>
 804a13c:	8b 45 f8             	mov    -0x8(%ebp),%eax
 804a13f:	8d 50 01             	lea    0x1(%eax),%edx
 804a142:	8b 45 fc             	mov    -0x4(%ebp),%eax
 804a145:	0f af c2             	imul   %edx,%eax
 804a148:	89 45 fc             	mov    %eax,-0x4(%ebp)
 804a14b:	83 45 f8 01          	addl   $0x1,-0x8(%ebp)
 804a14f:	83 7d f8 09          	cmpl   $0x9,-0x8(%ebp)
 804a153:	7e e7                	jle    804a13c <padding+0x1681>
 804a155:	c7 45 f8 00 00 00 00 	movl   $0x0,-0x8(%ebp)
 804a15c:	eb 13                	jmp    804a171 <padding+0x16b6>
 804a15e:	8b 45 f8             	mov    -0x8(%ebp),%eax
 804a161:	8d 50 01             	lea    0x1(%eax),%edx
 804a164:	8b 45 fc             	mov    -0x4(%ebp),%eax
 804a167:	0f af c2             	imul   %edx,%eax
 804a16a:	89 45 fc             	mov    %eax,-0x4(%ebp)
 804a16d:	83 45 f8 01          	addl   $0x1,-0x8(%ebp)
 804a171:	83 7d f8 09          	cmpl   $0x9,-0x8(%ebp)
 804a175:	7e e7                	jle    804a15e <padding+0x16a3>
 804a177:	c7 45 f8 00 00 00 00 	movl   $0x0,-0x8(%ebp)
 804a17e:	eb 13                	jmp    804a193 <padding+0x16d8>
 804a180:	8b 45 f8             	mov    -0x8(%ebp),%eax
 804a183:	8d 50 01             	lea    0x1(%eax),%edx
 804a186:	8b 45 fc             	mov    -0x4(%ebp),%eax
 804a189:	0f af c2             	imul   %edx,%eax
 804a18c:	89 45 fc             	mov    %eax,-0x4(%ebp)
 804a18f:	83 45 f8 01          	addl   $0x1,-0x8(%ebp)
 804a193:	83 7d f8 09          	cmpl   $0x9,-0x8(%ebp)
 804a197:	7e e7                	jle    804a180 <padding+0x16c5>
 804a199:	c7 45 f8 00 00 00 00 	movl   $0x0,-0x8(%ebp)
 804a1a0:	eb 13                	jmp    804a1b5 <padding+0x16fa>
 804a1a2:	8b 45 f8             	mov    -0x8(%ebp),%eax
 804a1a5:	8d 50 01             	lea    0x1(%eax),%edx
 804a1a8:	8b 45 fc             	mov    -0x4(%ebp),%eax
 804a1ab:	0f af c2             	imul   %edx,%eax
 804a1ae:	89 45 fc             	mov    %eax,-0x4(%ebp)
 804a1b1:	83 45 f8 01          	addl   $0x1,-0x8(%ebp)
 804a1b5:	83 7d f8 09          	cmpl   $0x9,-0x8(%ebp)
 804a1b9:	7e e7                	jle    804a1a2 <padding+0x16e7>
 804a1bb:	c7 45 f8 00 00 00 00 	movl   $0x0,-0x8(%ebp)
 804a1c2:	eb 13                	jmp    804a1d7 <padding+0x171c>
 804a1c4:	8b 45 f8             	mov    -0x8(%ebp),%eax
 804a1c7:	8d 50 01             	lea    0x1(%eax),%edx
 804a1ca:	8b 45 fc             	mov    -0x4(%ebp),%eax
 804a1cd:	0f af c2             	imul   %edx,%eax
 804a1d0:	89 45 fc             	mov    %eax,-0x4(%ebp)
 804a1d3:	83 45 f8 01          	addl   $0x1,-0x8(%ebp)
 804a1d7:	83 7d f8 09          	cmpl   $0x9,-0x8(%ebp)
 804a1db:	7e e7                	jle    804a1c4 <padding+0x1709>
 804a1dd:	c7 45 f8 00 00 00 00 	movl   $0x0,-0x8(%ebp)
 804a1e4:	eb 13                	jmp    804a1f9 <padding+0x173e>
 804a1e6:	8b 45 f8             	mov    -0x8(%ebp),%eax
 804a1e9:	8d 50 01             	lea    0x1(%eax),%edx
 804a1ec:	8b 45 fc             	mov    -0x4(%ebp),%eax
 804a1ef:	0f af c2             	imul   %edx,%eax
 804a1f2:	89 45 fc             	mov    %eax,-0x4(%ebp)
 804a1f5:	83 45 f8 01          	addl   $0x1,-0x8(%ebp)
 804a1f9:	83 7d f8 09          	cmpl   $0x9,-0x8(%ebp)
 804a1fd:	7e e7                	jle    804a1e6 <padding+0x172b>
 804a1ff:	c7 45 f8 00 00 00 00 	movl   $0x0,-0x8(%ebp)
 804a206:	eb 13                	jmp    804a21b <padding+0x1760>
 804a208:	8b 45 f8             	mov    -0x8(%ebp),%eax
 804a20b:	8d 50 01             	lea    0x1(%eax),%edx
 804a20e:	8b 45 fc             	mov    -0x4(%ebp),%eax
 804a211:	0f af c2             	imul   %edx,%eax
 804a214:	89 45 fc             	mov    %eax,-0x4(%ebp)
 804a217:	83 45 f8 01          	addl   $0x1,-0x8(%ebp)
 804a21b:	83 7d f8 09          	cmpl   $0x9,-0x8(%ebp)
 804a21f:	7e e7                	jle    804a208 <padding+0x174d>
 804a221:	c7 45 f8 00 00 00 00 	movl   $0x0,-0x8(%ebp)
 804a228:	eb 13                	jmp    804a23d <padding+0x1782>
 804a22a:	8b 45 f8             	mov    -0x8(%ebp),%eax
 804a22d:	8d 50 01             	lea    0x1(%eax),%edx
 804a230:	8b 45 fc             	mov    -0x4(%ebp),%eax
 804a233:	0f af c2             	imul   %edx,%eax
 804a236:	89 45 fc             	mov    %eax,-0x4(%ebp)
 804a239:	83 45 f8 01          	addl   $0x1,-0x8(%ebp)
 804a23d:	83 7d f8 09          	cmpl   $0x9,-0x8(%ebp)
 804a241:	7e e7                	jle    804a22a <padding+0x176f>
 804a243:	c7 45 f8 00 00 00 00 	movl   $0x0,-0x8(%ebp)
 804a24a:	eb 13                	jmp    804a25f <padding+0x17a4>
 804a24c:	8b 45 f8             	mov    -0x8(%ebp),%eax
 804a24f:	8d 50 01             	lea    0x1(%eax),%edx
 804a252:	8b 45 fc             	mov    -0x4(%ebp),%eax
 804a255:	0f af c2             	imul   %edx,%eax
 804a258:	89 45 fc             	mov    %eax,-0x4(%ebp)
 804a25b:	83 45 f8 01          	addl   $0x1,-0x8(%ebp)
 804a25f:	83 7d f8 09          	cmpl   $0x9,-0x8(%ebp)
 804a263:	7e e7                	jle    804a24c <padding+0x1791>
 804a265:	c7 45 f8 00 00 00 00 	movl   $0x0,-0x8(%ebp)
 804a26c:	eb 13                	jmp    804a281 <padding+0x17c6>
 804a26e:	8b 45 f8             	mov    -0x8(%ebp),%eax
 804a271:	8d 50 01             	lea    0x1(%eax),%edx
 804a274:	8b 45 fc             	mov    -0x4(%ebp),%eax
 804a277:	0f af c2             	imul   %edx,%eax
 804a27a:	89 45 fc             	mov    %eax,-0x4(%ebp)
 804a27d:	83 45 f8 01          	addl   $0x1,-0x8(%ebp)
 804a281:	83 7d f8 09          	cmpl   $0x9,-0x8(%ebp)
 804a285:	7e e7                	jle    804a26e <padding+0x17b3>
 804a287:	c7 45 f8 00 00 00 00 	movl   $0x0,-0x8(%ebp)
 804a28e:	eb 13                	jmp    804a2a3 <padding+0x17e8>
 804a290:	8b 45 f8             	mov    -0x8(%ebp),%eax
 804a293:	8d 50 01             	lea    0x1(%eax),%edx
 804a296:	8b 45 fc             	mov    -0x4(%ebp),%eax
 804a299:	0f af c2             	imul   %edx,%eax
 804a29c:	89 45 fc             	mov    %eax,-0x4(%ebp)
 804a29f:	83 45 f8 01          	addl   $0x1,-0x8(%ebp)
 804a2a3:	83 7d f8 09          	cmpl   $0x9,-0x8(%ebp)
 804a2a7:	7e e7                	jle    804a290 <padding+0x17d5>
 804a2a9:	c7 45 f8 00 00 00 00 	movl   $0x0,-0x8(%ebp)
 804a2b0:	eb 13                	jmp    804a2c5 <padding+0x180a>
 804a2b2:	8b 45 f8             	mov    -0x8(%ebp),%eax
 804a2b5:	8d 50 01             	lea    0x1(%eax),%edx
 804a2b8:	8b 45 fc             	mov    -0x4(%ebp),%eax
 804a2bb:	0f af c2             	imul   %edx,%eax
 804a2be:	89 45 fc             	mov    %eax,-0x4(%ebp)
 804a2c1:	83 45 f8 01          	addl   $0x1,-0x8(%ebp)
 804a2c5:	83 7d f8 09          	cmpl   $0x9,-0x8(%ebp)
 804a2c9:	7e e7                	jle    804a2b2 <padding+0x17f7>
 804a2cb:	c7 45 f8 00 00 00 00 	movl   $0x0,-0x8(%ebp)
 804a2d2:	eb 13                	jmp    804a2e7 <padding+0x182c>
 804a2d4:	8b 45 f8             	mov    -0x8(%ebp),%eax
 804a2d7:	8d 50 01             	lea    0x1(%eax),%edx
 804a2da:	8b 45 fc             	mov    -0x4(%ebp),%eax
 804a2dd:	0f af c2             	imul   %edx,%eax
 804a2e0:	89 45 fc             	mov    %eax,-0x4(%ebp)
 804a2e3:	83 45 f8 01          	addl   $0x1,-0x8(%ebp)
 804a2e7:	83 7d f8 09          	cmpl   $0x9,-0x8(%ebp)
 804a2eb:	7e e7                	jle    804a2d4 <padding+0x1819>
 804a2ed:	c7 45 f8 00 00 00 00 	movl   $0x0,-0x8(%ebp)
 804a2f4:	eb 13                	jmp    804a309 <padding+0x184e>
 804a2f6:	8b 45 f8             	mov    -0x8(%ebp),%eax
 804a2f9:	8d 50 01             	lea    0x1(%eax),%edx
 804a2fc:	8b 45 fc             	mov    -0x4(%ebp),%eax
 804a2ff:	0f af c2             	imul   %edx,%eax
 804a302:	89 45 fc             	mov    %eax,-0x4(%ebp)
 804a305:	83 45 f8 01          	addl   $0x1,-0x8(%ebp)
 804a309:	83 7d f8 09          	cmpl   $0x9,-0x8(%ebp)
 804a30d:	7e e7                	jle    804a2f6 <padding+0x183b>
 804a30f:	c7 45 f8 00 00 00 00 	movl   $0x0,-0x8(%ebp)
 804a316:	eb 13                	jmp    804a32b <padding+0x1870>
 804a318:	8b 45 f8             	mov    -0x8(%ebp),%eax
 804a31b:	8d 50 01             	lea    0x1(%eax),%edx
 804a31e:	8b 45 fc             	mov    -0x4(%ebp),%eax
 804a321:	0f af c2             	imul   %edx,%eax
 804a324:	89 45 fc             	mov    %eax,-0x4(%ebp)
 804a327:	83 45 f8 01          	addl   $0x1,-0x8(%ebp)
 804a32b:	83 7d f8 09          	cmpl   $0x9,-0x8(%ebp)
 804a32f:	7e e7                	jle    804a318 <padding+0x185d>
 804a331:	c7 45 f8 00 00 00 00 	movl   $0x0,-0x8(%ebp)
 804a338:	eb 13                	jmp    804a34d <padding+0x1892>
 804a33a:	8b 45 f8             	mov    -0x8(%ebp),%eax
 804a33d:	8d 50 01             	lea    0x1(%eax),%edx
 804a340:	8b 45 fc             	mov    -0x4(%ebp),%eax
 804a343:	0f af c2             	imul   %edx,%eax
 804a346:	89 45 fc             	mov    %eax,-0x4(%ebp)
 804a349:	83 45 f8 01          	addl   $0x1,-0x8(%ebp)
 804a34d:	83 7d f8 09          	cmpl   $0x9,-0x8(%ebp)
 804a351:	7e e7                	jle    804a33a <padding+0x187f>
 804a353:	c7 45 f8 00 00 00 00 	movl   $0x0,-0x8(%ebp)
 804a35a:	eb 13                	jmp    804a36f <padding+0x18b4>
 804a35c:	8b 45 f8             	mov    -0x8(%ebp),%eax
 804a35f:	8d 50 01             	lea    0x1(%eax),%edx
 804a362:	8b 45 fc             	mov    -0x4(%ebp),%eax
 804a365:	0f af c2             	imul   %edx,%eax
 804a368:	89 45 fc             	mov    %eax,-0x4(%ebp)
 804a36b:	83 45 f8 01          	addl   $0x1,-0x8(%ebp)
 804a36f:	83 7d f8 09          	cmpl   $0x9,-0x8(%ebp)
 804a373:	7e e7                	jle    804a35c <padding+0x18a1>
 804a375:	c7 45 f8 00 00 00 00 	movl   $0x0,-0x8(%ebp)
 804a37c:	eb 13                	jmp    804a391 <padding+0x18d6>
 804a37e:	8b 45 f8             	mov    -0x8(%ebp),%eax
 804a381:	8d 50 01             	lea    0x1(%eax),%edx
 804a384:	8b 45 fc             	mov    -0x4(%ebp),%eax
 804a387:	0f af c2             	imul   %edx,%eax
 804a38a:	89 45 fc             	mov    %eax,-0x4(%ebp)
 804a38d:	83 45 f8 01          	addl   $0x1,-0x8(%ebp)
 804a391:	83 7d f8 09          	cmpl   $0x9,-0x8(%ebp)
 804a395:	7e e7                	jle    804a37e <padding+0x18c3>
 804a397:	c7 45 f8 00 00 00 00 	movl   $0x0,-0x8(%ebp)
 804a39e:	eb 13                	jmp    804a3b3 <padding+0x18f8>
 804a3a0:	8b 45 f8             	mov    -0x8(%ebp),%eax
 804a3a3:	8d 50 01             	lea    0x1(%eax),%edx
 804a3a6:	8b 45 fc             	mov    -0x4(%ebp),%eax
 804a3a9:	0f af c2             	imul   %edx,%eax
 804a3ac:	89 45 fc             	mov    %eax,-0x4(%ebp)
 804a3af:	83 45 f8 01          	addl   $0x1,-0x8(%ebp)
 804a3b3:	83 7d f8 09          	cmpl   $0x9,-0x8(%ebp)
 804a3b7:	7e e7                	jle    804a3a0 <padding+0x18e5>
 804a3b9:	c7 45 f8 00 00 00 00 	movl   $0x0,-0x8(%ebp)
 804a3c0:	eb 13                	jmp    804a3d5 <padding+0x191a>
 804a3c2:	8b 45 f8             	mov    -0x8(%ebp),%eax
 804a3c5:	8d 50 01             	lea    0x1(%eax),%edx
 804a3c8:	8b 45 fc             	mov    -0x4(%ebp),%eax
 804a3cb:	0f af c2             	imul   %edx,%eax
 804a3ce:	89 45 fc             	mov    %eax,-0x4(%ebp)
 804a3d1:	83 45 f8 01          	addl   $0x1,-0x8(%ebp)
 804a3d5:	83 7d f8 09          	cmpl   $0x9,-0x8(%ebp)
 804a3d9:	7e e7                	jle    804a3c2 <padding+0x1907>
 804a3db:	c7 45 f8 00 00 00 00 	movl   $0x0,-0x8(%ebp)
 804a3e2:	eb 13                	jmp    804a3f7 <padding+0x193c>
 804a3e4:	8b 45 f8             	mov    -0x8(%ebp),%eax
 804a3e7:	8d 50 01             	lea    0x1(%eax),%edx
 804a3ea:	8b 45 fc             	mov    -0x4(%ebp),%eax
 804a3ed:	0f af c2             	imul   %edx,%eax
 804a3f0:	89 45 fc             	mov    %eax,-0x4(%ebp)
 804a3f3:	83 45 f8 01          	addl   $0x1,-0x8(%ebp)
 804a3f7:	83 7d f8 09          	cmpl   $0x9,-0x8(%ebp)
 804a3fb:	7e e7                	jle    804a3e4 <padding+0x1929>
 804a3fd:	c7 45 f8 00 00 00 00 	movl   $0x0,-0x8(%ebp)
 804a404:	eb 13                	jmp    804a419 <padding+0x195e>
 804a406:	8b 45 f8             	mov    -0x8(%ebp),%eax
 804a409:	8d 50 01             	lea    0x1(%eax),%edx
 804a40c:	8b 45 fc             	mov    -0x4(%ebp),%eax
 804a40f:	0f af c2             	imul   %edx,%eax
 804a412:	89 45 fc             	mov    %eax,-0x4(%ebp)
 804a415:	83 45 f8 01          	addl   $0x1,-0x8(%ebp)
 804a419:	83 7d f8 09          	cmpl   $0x9,-0x8(%ebp)
 804a41d:	7e e7                	jle    804a406 <padding+0x194b>
 804a41f:	c7 45 f8 00 00 00 00 	movl   $0x0,-0x8(%ebp)
 804a426:	eb 13                	jmp    804a43b <padding+0x1980>
 804a428:	8b 45 f8             	mov    -0x8(%ebp),%eax
 804a42b:	8d 50 01             	lea    0x1(%eax),%edx
 804a42e:	8b 45 fc             	mov    -0x4(%ebp),%eax
 804a431:	0f af c2             	imul   %edx,%eax
 804a434:	89 45 fc             	mov    %eax,-0x4(%ebp)
 804a437:	83 45 f8 01          	addl   $0x1,-0x8(%ebp)
 804a43b:	83 7d f8 09          	cmpl   $0x9,-0x8(%ebp)
 804a43f:	7e e7                	jle    804a428 <padding+0x196d>
 804a441:	c7 45 f8 00 00 00 00 	movl   $0x0,-0x8(%ebp)
 804a448:	eb 13                	jmp    804a45d <padding+0x19a2>
 804a44a:	8b 45 f8             	mov    -0x8(%ebp),%eax
 804a44d:	8d 50 01             	lea    0x1(%eax),%edx
 804a450:	8b 45 fc             	mov    -0x4(%ebp),%eax
 804a453:	0f af c2             	imul   %edx,%eax
 804a456:	89 45 fc             	mov    %eax,-0x4(%ebp)
 804a459:	83 45 f8 01          	addl   $0x1,-0x8(%ebp)
 804a45d:	83 7d f8 09          	cmpl   $0x9,-0x8(%ebp)
 804a461:	7e e7                	jle    804a44a <padding+0x198f>
 804a463:	c7 45 f8 00 00 00 00 	movl   $0x0,-0x8(%ebp)
 804a46a:	eb 13                	jmp    804a47f <padding+0x19c4>
 804a46c:	8b 45 f8             	mov    -0x8(%ebp),%eax
 804a46f:	8d 50 01             	lea    0x1(%eax),%edx
 804a472:	8b 45 fc             	mov    -0x4(%ebp),%eax
 804a475:	0f af c2             	imul   %edx,%eax
 804a478:	89 45 fc             	mov    %eax,-0x4(%ebp)
 804a47b:	83 45 f8 01          	addl   $0x1,-0x8(%ebp)
 804a47f:	83 7d f8 09          	cmpl   $0x9,-0x8(%ebp)
 804a483:	7e e7                	jle    804a46c <padding+0x19b1>
 804a485:	c7 45 f8 00 00 00 00 	movl   $0x0,-0x8(%ebp)
 804a48c:	eb 13                	jmp    804a4a1 <padding+0x19e6>
 804a48e:	8b 45 f8             	mov    -0x8(%ebp),%eax
 804a491:	8d 50 01             	lea    0x1(%eax),%edx
 804a494:	8b 45 fc             	mov    -0x4(%ebp),%eax
 804a497:	0f af c2             	imul   %edx,%eax
 804a49a:	89 45 fc             	mov    %eax,-0x4(%ebp)
 804a49d:	83 45 f8 01          	addl   $0x1,-0x8(%ebp)
 804a4a1:	83 7d f8 09          	cmpl   $0x9,-0x8(%ebp)
 804a4a5:	7e e7                	jle    804a48e <padding+0x19d3>
 804a4a7:	c7 45 f8 00 00 00 00 	movl   $0x0,-0x8(%ebp)
 804a4ae:	eb 13                	jmp    804a4c3 <padding+0x1a08>
 804a4b0:	8b 45 f8             	mov    -0x8(%ebp),%eax
 804a4b3:	8d 50 01             	lea    0x1(%eax),%edx
 804a4b6:	8b 45 fc             	mov    -0x4(%ebp),%eax
 804a4b9:	0f af c2             	imul   %edx,%eax
 804a4bc:	89 45 fc             	mov    %eax,-0x4(%ebp)
 804a4bf:	83 45 f8 01          	addl   $0x1,-0x8(%ebp)
 804a4c3:	83 7d f8 09          	cmpl   $0x9,-0x8(%ebp)
 804a4c7:	7e e7                	jle    804a4b0 <padding+0x19f5>
 804a4c9:	c7 45 f8 00 00 00 00 	movl   $0x0,-0x8(%ebp)
 804a4d0:	eb 13                	jmp    804a4e5 <padding+0x1a2a>
 804a4d2:	8b 45 f8             	mov    -0x8(%ebp),%eax
 804a4d5:	8d 50 01             	lea    0x1(%eax),%edx
 804a4d8:	8b 45 fc             	mov    -0x4(%ebp),%eax
 804a4db:	0f af c2             	imul   %edx,%eax
 804a4de:	89 45 fc             	mov    %eax,-0x4(%ebp)
 804a4e1:	83 45 f8 01          	addl   $0x1,-0x8(%ebp)
 804a4e5:	83 7d f8 09          	cmpl   $0x9,-0x8(%ebp)
 804a4e9:	7e e7                	jle    804a4d2 <padding+0x1a17>
 804a4eb:	c7 45 f8 00 00 00 00 	movl   $0x0,-0x8(%ebp)
 804a4f2:	eb 13                	jmp    804a507 <padding+0x1a4c>
 804a4f4:	8b 45 f8             	mov    -0x8(%ebp),%eax
 804a4f7:	8d 50 01             	lea    0x1(%eax),%edx
 804a4fa:	8b 45 fc             	mov    -0x4(%ebp),%eax
 804a4fd:	0f af c2             	imul   %edx,%eax
 804a500:	89 45 fc             	mov    %eax,-0x4(%ebp)
 804a503:	83 45 f8 01          	addl   $0x1,-0x8(%ebp)
 804a507:	83 7d f8 09          	cmpl   $0x9,-0x8(%ebp)
 804a50b:	7e e7                	jle    804a4f4 <padding+0x1a39>
 804a50d:	c7 45 f8 00 00 00 00 	movl   $0x0,-0x8(%ebp)
 804a514:	eb 13                	jmp    804a529 <padding+0x1a6e>
 804a516:	8b 45 f8             	mov    -0x8(%ebp),%eax
 804a519:	8d 50 01             	lea    0x1(%eax),%edx
 804a51c:	8b 45 fc             	mov    -0x4(%ebp),%eax
 804a51f:	0f af c2             	imul   %edx,%eax
 804a522:	89 45 fc             	mov    %eax,-0x4(%ebp)
 804a525:	83 45 f8 01          	addl   $0x1,-0x8(%ebp)
 804a529:	83 7d f8 09          	cmpl   $0x9,-0x8(%ebp)
 804a52d:	7e e7                	jle    804a516 <padding+0x1a5b>
 804a52f:	c7 45 f8 00 00 00 00 	movl   $0x0,-0x8(%ebp)
 804a536:	eb 13                	jmp    804a54b <padding+0x1a90>
 804a538:	8b 45 f8             	mov    -0x8(%ebp),%eax
 804a53b:	8d 50 01             	lea    0x1(%eax),%edx
 804a53e:	8b 45 fc             	mov    -0x4(%ebp),%eax
 804a541:	0f af c2             	imul   %edx,%eax
 804a544:	89 45 fc             	mov    %eax,-0x4(%ebp)
 804a547:	83 45 f8 01          	addl   $0x1,-0x8(%ebp)
 804a54b:	83 7d f8 09          	cmpl   $0x9,-0x8(%ebp)
 804a54f:	7e e7                	jle    804a538 <padding+0x1a7d>
 804a551:	c7 45 f8 00 00 00 00 	movl   $0x0,-0x8(%ebp)
 804a558:	eb 13                	jmp    804a56d <padding+0x1ab2>
 804a55a:	8b 45 f8             	mov    -0x8(%ebp),%eax
 804a55d:	8d 50 01             	lea    0x1(%eax),%edx
 804a560:	8b 45 fc             	mov    -0x4(%ebp),%eax
 804a563:	0f af c2             	imul   %edx,%eax
 804a566:	89 45 fc             	mov    %eax,-0x4(%ebp)
 804a569:	83 45 f8 01          	addl   $0x1,-0x8(%ebp)
 804a56d:	83 7d f8 09          	cmpl   $0x9,-0x8(%ebp)
 804a571:	7e e7                	jle    804a55a <padding+0x1a9f>
 804a573:	c7 45 f8 00 00 00 00 	movl   $0x0,-0x8(%ebp)
 804a57a:	eb 13                	jmp    804a58f <padding+0x1ad4>
 804a57c:	8b 45 f8             	mov    -0x8(%ebp),%eax
 804a57f:	8d 50 01             	lea    0x1(%eax),%edx
 804a582:	8b 45 fc             	mov    -0x4(%ebp),%eax
 804a585:	0f af c2             	imul   %edx,%eax
 804a588:	89 45 fc             	mov    %eax,-0x4(%ebp)
 804a58b:	83 45 f8 01          	addl   $0x1,-0x8(%ebp)
 804a58f:	83 7d f8 09          	cmpl   $0x9,-0x8(%ebp)
 804a593:	7e e7                	jle    804a57c <padding+0x1ac1>
 804a595:	c7 45 f8 00 00 00 00 	movl   $0x0,-0x8(%ebp)
 804a59c:	eb 13                	jmp    804a5b1 <padding+0x1af6>
 804a59e:	8b 45 f8             	mov    -0x8(%ebp),%eax
 804a5a1:	8d 50 01             	lea    0x1(%eax),%edx
 804a5a4:	8b 45 fc             	mov    -0x4(%ebp),%eax
 804a5a7:	0f af c2             	imul   %edx,%eax
 804a5aa:	89 45 fc             	mov    %eax,-0x4(%ebp)
 804a5ad:	83 45 f8 01          	addl   $0x1,-0x8(%ebp)
 804a5b1:	83 7d f8 09          	cmpl   $0x9,-0x8(%ebp)
 804a5b5:	7e e7                	jle    804a59e <padding+0x1ae3>
 804a5b7:	c7 45 f8 00 00 00 00 	movl   $0x0,-0x8(%ebp)
 804a5be:	eb 13                	jmp    804a5d3 <padding+0x1b18>
 804a5c0:	8b 45 f8             	mov    -0x8(%ebp),%eax
 804a5c3:	8d 50 01             	lea    0x1(%eax),%edx
 804a5c6:	8b 45 fc             	mov    -0x4(%ebp),%eax
 804a5c9:	0f af c2             	imul   %edx,%eax
 804a5cc:	89 45 fc             	mov    %eax,-0x4(%ebp)
 804a5cf:	83 45 f8 01          	addl   $0x1,-0x8(%ebp)
 804a5d3:	83 7d f8 09          	cmpl   $0x9,-0x8(%ebp)
 804a5d7:	7e e7                	jle    804a5c0 <padding+0x1b05>
 804a5d9:	c7 45 f8 00 00 00 00 	movl   $0x0,-0x8(%ebp)
 804a5e0:	eb 13                	jmp    804a5f5 <padding+0x1b3a>
 804a5e2:	8b 45 f8             	mov    -0x8(%ebp),%eax
 804a5e5:	8d 50 01             	lea    0x1(%eax),%edx
 804a5e8:	8b 45 fc             	mov    -0x4(%ebp),%eax
 804a5eb:	0f af c2             	imul   %edx,%eax
 804a5ee:	89 45 fc             	mov    %eax,-0x4(%ebp)
 804a5f1:	83 45 f8 01          	addl   $0x1,-0x8(%ebp)
 804a5f5:	83 7d f8 09          	cmpl   $0x9,-0x8(%ebp)
 804a5f9:	7e e7                	jle    804a5e2 <padding+0x1b27>
 804a5fb:	c7 45 f8 00 00 00 00 	movl   $0x0,-0x8(%ebp)
 804a602:	eb 13                	jmp    804a617 <padding+0x1b5c>
 804a604:	8b 45 f8             	mov    -0x8(%ebp),%eax
 804a607:	8d 50 01             	lea    0x1(%eax),%edx
 804a60a:	8b 45 fc             	mov    -0x4(%ebp),%eax
 804a60d:	0f af c2             	imul   %edx,%eax
 804a610:	89 45 fc             	mov    %eax,-0x4(%ebp)
 804a613:	83 45 f8 01          	addl   $0x1,-0x8(%ebp)
 804a617:	83 7d f8 09          	cmpl   $0x9,-0x8(%ebp)
 804a61b:	7e e7                	jle    804a604 <padding+0x1b49>
 804a61d:	c7 45 f8 00 00 00 00 	movl   $0x0,-0x8(%ebp)
 804a624:	eb 13                	jmp    804a639 <padding+0x1b7e>
 804a626:	8b 45 f8             	mov    -0x8(%ebp),%eax
 804a629:	8d 50 01             	lea    0x1(%eax),%edx
 804a62c:	8b 45 fc             	mov    -0x4(%ebp),%eax
 804a62f:	0f af c2             	imul   %edx,%eax
 804a632:	89 45 fc             	mov    %eax,-0x4(%ebp)
 804a635:	83 45 f8 01          	addl   $0x1,-0x8(%ebp)
 804a639:	83 7d f8 09          	cmpl   $0x9,-0x8(%ebp)
 804a63d:	7e e7                	jle    804a626 <padding+0x1b6b>
 804a63f:	c7 45 f8 00 00 00 00 	movl   $0x0,-0x8(%ebp)
 804a646:	eb 13                	jmp    804a65b <padding+0x1ba0>
 804a648:	8b 45 f8             	mov    -0x8(%ebp),%eax
 804a64b:	8d 50 01             	lea    0x1(%eax),%edx
 804a64e:	8b 45 fc             	mov    -0x4(%ebp),%eax
 804a651:	0f af c2             	imul   %edx,%eax
 804a654:	89 45 fc             	mov    %eax,-0x4(%ebp)
 804a657:	83 45 f8 01          	addl   $0x1,-0x8(%ebp)
 804a65b:	83 7d f8 09          	cmpl   $0x9,-0x8(%ebp)
 804a65f:	7e e7                	jle    804a648 <padding+0x1b8d>
 804a661:	c7 45 f8 00 00 00 00 	movl   $0x0,-0x8(%ebp)
 804a668:	eb 13                	jmp    804a67d <padding+0x1bc2>
 804a66a:	8b 45 f8             	mov    -0x8(%ebp),%eax
 804a66d:	8d 50 01             	lea    0x1(%eax),%edx
 804a670:	8b 45 fc             	mov    -0x4(%ebp),%eax
 804a673:	0f af c2             	imul   %edx,%eax
 804a676:	89 45 fc             	mov    %eax,-0x4(%ebp)
 804a679:	83 45 f8 01          	addl   $0x1,-0x8(%ebp)
 804a67d:	83 7d f8 09          	cmpl   $0x9,-0x8(%ebp)
 804a681:	7e e7                	jle    804a66a <padding+0x1baf>
 804a683:	c7 45 f8 00 00 00 00 	movl   $0x0,-0x8(%ebp)
 804a68a:	eb 13                	jmp    804a69f <padding+0x1be4>
 804a68c:	8b 45 f8             	mov    -0x8(%ebp),%eax
 804a68f:	8d 50 01             	lea    0x1(%eax),%edx
 804a692:	8b 45 fc             	mov    -0x4(%ebp),%eax
 804a695:	0f af c2             	imul   %edx,%eax
 804a698:	89 45 fc             	mov    %eax,-0x4(%ebp)
 804a69b:	83 45 f8 01          	addl   $0x1,-0x8(%ebp)
 804a69f:	83 7d f8 09          	cmpl   $0x9,-0x8(%ebp)
 804a6a3:	7e e7                	jle    804a68c <padding+0x1bd1>
 804a6a5:	c7 45 f8 00 00 00 00 	movl   $0x0,-0x8(%ebp)
 804a6ac:	eb 13                	jmp    804a6c1 <padding+0x1c06>
 804a6ae:	8b 45 f8             	mov    -0x8(%ebp),%eax
 804a6b1:	8d 50 01             	lea    0x1(%eax),%edx
 804a6b4:	8b 45 fc             	mov    -0x4(%ebp),%eax
 804a6b7:	0f af c2             	imul   %edx,%eax
 804a6ba:	89 45 fc             	mov    %eax,-0x4(%ebp)
 804a6bd:	83 45 f8 01          	addl   $0x1,-0x8(%ebp)
 804a6c1:	83 7d f8 09          	cmpl   $0x9,-0x8(%ebp)
 804a6c5:	7e e7                	jle    804a6ae <padding+0x1bf3>
 804a6c7:	c7 45 f8 00 00 00 00 	movl   $0x0,-0x8(%ebp)
 804a6ce:	eb 13                	jmp    804a6e3 <padding+0x1c28>
 804a6d0:	8b 45 f8             	mov    -0x8(%ebp),%eax
 804a6d3:	8d 50 01             	lea    0x1(%eax),%edx
 804a6d6:	8b 45 fc             	mov    -0x4(%ebp),%eax
 804a6d9:	0f af c2             	imul   %edx,%eax
 804a6dc:	89 45 fc             	mov    %eax,-0x4(%ebp)
 804a6df:	83 45 f8 01          	addl   $0x1,-0x8(%ebp)
 804a6e3:	83 7d f8 09          	cmpl   $0x9,-0x8(%ebp)
 804a6e7:	7e e7                	jle    804a6d0 <padding+0x1c15>
 804a6e9:	c7 45 f8 00 00 00 00 	movl   $0x0,-0x8(%ebp)
 804a6f0:	eb 13                	jmp    804a705 <padding+0x1c4a>
 804a6f2:	8b 45 f8             	mov    -0x8(%ebp),%eax
 804a6f5:	8d 50 01             	lea    0x1(%eax),%edx
 804a6f8:	8b 45 fc             	mov    -0x4(%ebp),%eax
 804a6fb:	0f af c2             	imul   %edx,%eax
 804a6fe:	89 45 fc             	mov    %eax,-0x4(%ebp)
 804a701:	83 45 f8 01          	addl   $0x1,-0x8(%ebp)
 804a705:	83 7d f8 09          	cmpl   $0x9,-0x8(%ebp)
 804a709:	7e e7                	jle    804a6f2 <padding+0x1c37>
 804a70b:	c7 45 f8 00 00 00 00 	movl   $0x0,-0x8(%ebp)
 804a712:	eb 13                	jmp    804a727 <padding+0x1c6c>
 804a714:	8b 45 f8             	mov    -0x8(%ebp),%eax
 804a717:	8d 50 01             	lea    0x1(%eax),%edx
 804a71a:	8b 45 fc             	mov    -0x4(%ebp),%eax
 804a71d:	0f af c2             	imul   %edx,%eax
 804a720:	89 45 fc             	mov    %eax,-0x4(%ebp)
 804a723:	83 45 f8 01          	addl   $0x1,-0x8(%ebp)
 804a727:	83 7d f8 09          	cmpl   $0x9,-0x8(%ebp)
 804a72b:	7e e7                	jle    804a714 <padding+0x1c59>
 804a72d:	c7 45 f8 00 00 00 00 	movl   $0x0,-0x8(%ebp)
 804a734:	eb 13                	jmp    804a749 <padding+0x1c8e>
 804a736:	8b 45 f8             	mov    -0x8(%ebp),%eax
 804a739:	8d 50 01             	lea    0x1(%eax),%edx
 804a73c:	8b 45 fc             	mov    -0x4(%ebp),%eax
 804a73f:	0f af c2             	imul   %edx,%eax
 804a742:	89 45 fc             	mov    %eax,-0x4(%ebp)
 804a745:	83 45 f8 01          	addl   $0x1,-0x8(%ebp)
 804a749:	83 7d f8 09          	cmpl   $0x9,-0x8(%ebp)
 804a74d:	7e e7                	jle    804a736 <padding+0x1c7b>
 804a74f:	c7 45 f8 00 00 00 00 	movl   $0x0,-0x8(%ebp)
 804a756:	eb 13                	jmp    804a76b <padding+0x1cb0>
 804a758:	8b 45 f8             	mov    -0x8(%ebp),%eax
 804a75b:	8d 50 01             	lea    0x1(%eax),%edx
 804a75e:	8b 45 fc             	mov    -0x4(%ebp),%eax
 804a761:	0f af c2             	imul   %edx,%eax
 804a764:	89 45 fc             	mov    %eax,-0x4(%ebp)
 804a767:	83 45 f8 01          	addl   $0x1,-0x8(%ebp)
 804a76b:	83 7d f8 09          	cmpl   $0x9,-0x8(%ebp)
 804a76f:	7e e7                	jle    804a758 <padding+0x1c9d>
 804a771:	c7 45 f8 00 00 00 00 	movl   $0x0,-0x8(%ebp)
 804a778:	eb 13                	jmp    804a78d <padding+0x1cd2>
 804a77a:	8b 45 f8             	mov    -0x8(%ebp),%eax
 804a77d:	8d 50 01             	lea    0x1(%eax),%edx
 804a780:	8b 45 fc             	mov    -0x4(%ebp),%eax
 804a783:	0f af c2             	imul   %edx,%eax
 804a786:	89 45 fc             	mov    %eax,-0x4(%ebp)
 804a789:	83 45 f8 01          	addl   $0x1,-0x8(%ebp)
 804a78d:	83 7d f8 09          	cmpl   $0x9,-0x8(%ebp)
 804a791:	7e e7                	jle    804a77a <padding+0x1cbf>
 804a793:	c7 45 f8 00 00 00 00 	movl   $0x0,-0x8(%ebp)
 804a79a:	eb 13                	jmp    804a7af <padding+0x1cf4>
 804a79c:	8b 45 f8             	mov    -0x8(%ebp),%eax
 804a79f:	8d 50 01             	lea    0x1(%eax),%edx
 804a7a2:	8b 45 fc             	mov    -0x4(%ebp),%eax
 804a7a5:	0f af c2             	imul   %edx,%eax
 804a7a8:	89 45 fc             	mov    %eax,-0x4(%ebp)
 804a7ab:	83 45 f8 01          	addl   $0x1,-0x8(%ebp)
 804a7af:	83 7d f8 09          	cmpl   $0x9,-0x8(%ebp)
 804a7b3:	7e e7                	jle    804a79c <padding+0x1ce1>
 804a7b5:	c7 45 f8 00 00 00 00 	movl   $0x0,-0x8(%ebp)
 804a7bc:	eb 13                	jmp    804a7d1 <padding+0x1d16>
 804a7be:	8b 45 f8             	mov    -0x8(%ebp),%eax
 804a7c1:	8d 50 01             	lea    0x1(%eax),%edx
 804a7c4:	8b 45 fc             	mov    -0x4(%ebp),%eax
 804a7c7:	0f af c2             	imul   %edx,%eax
 804a7ca:	89 45 fc             	mov    %eax,-0x4(%ebp)
 804a7cd:	83 45 f8 01          	addl   $0x1,-0x8(%ebp)
 804a7d1:	83 7d f8 09          	cmpl   $0x9,-0x8(%ebp)
 804a7d5:	7e e7                	jle    804a7be <padding+0x1d03>
 804a7d7:	c7 45 f8 00 00 00 00 	movl   $0x0,-0x8(%ebp)
 804a7de:	eb 13                	jmp    804a7f3 <padding+0x1d38>
 804a7e0:	8b 45 f8             	mov    -0x8(%ebp),%eax
 804a7e3:	8d 50 01             	lea    0x1(%eax),%edx
 804a7e6:	8b 45 fc             	mov    -0x4(%ebp),%eax
 804a7e9:	0f af c2             	imul   %edx,%eax
 804a7ec:	89 45 fc             	mov    %eax,-0x4(%ebp)
 804a7ef:	83 45 f8 01          	addl   $0x1,-0x8(%ebp)
 804a7f3:	83 7d f8 09          	cmpl   $0x9,-0x8(%ebp)
 804a7f7:	7e e7                	jle    804a7e0 <padding+0x1d25>
 804a7f9:	c7 45 f8 00 00 00 00 	movl   $0x0,-0x8(%ebp)
 804a800:	eb 13                	jmp    804a815 <padding+0x1d5a>
 804a802:	8b 45 f8             	mov    -0x8(%ebp),%eax
 804a805:	8d 50 01             	lea    0x1(%eax),%edx
 804a808:	8b 45 fc             	mov    -0x4(%ebp),%eax
 804a80b:	0f af c2             	imul   %edx,%eax
 804a80e:	89 45 fc             	mov    %eax,-0x4(%ebp)
 804a811:	83 45 f8 01          	addl   $0x1,-0x8(%ebp)
 804a815:	83 7d f8 09          	cmpl   $0x9,-0x8(%ebp)
 804a819:	7e e7                	jle    804a802 <padding+0x1d47>
 804a81b:	c7 45 f8 00 00 00 00 	movl   $0x0,-0x8(%ebp)
 804a822:	eb 13                	jmp    804a837 <padding+0x1d7c>
 804a824:	8b 45 f8             	mov    -0x8(%ebp),%eax
 804a827:	8d 50 01             	lea    0x1(%eax),%edx
 804a82a:	8b 45 fc             	mov    -0x4(%ebp),%eax
 804a82d:	0f af c2             	imul   %edx,%eax
 804a830:	89 45 fc             	mov    %eax,-0x4(%ebp)
 804a833:	83 45 f8 01          	addl   $0x1,-0x8(%ebp)
 804a837:	83 7d f8 09          	cmpl   $0x9,-0x8(%ebp)
 804a83b:	7e e7                	jle    804a824 <padding+0x1d69>
 804a83d:	c7 45 f8 00 00 00 00 	movl   $0x0,-0x8(%ebp)
 804a844:	eb 13                	jmp    804a859 <padding+0x1d9e>
 804a846:	8b 45 f8             	mov    -0x8(%ebp),%eax
 804a849:	8d 50 01             	lea    0x1(%eax),%edx
 804a84c:	8b 45 fc             	mov    -0x4(%ebp),%eax
 804a84f:	0f af c2             	imul   %edx,%eax
 804a852:	89 45 fc             	mov    %eax,-0x4(%ebp)
 804a855:	83 45 f8 01          	addl   $0x1,-0x8(%ebp)
 804a859:	83 7d f8 09          	cmpl   $0x9,-0x8(%ebp)
 804a85d:	7e e7                	jle    804a846 <padding+0x1d8b>
 804a85f:	c7 45 f8 00 00 00 00 	movl   $0x0,-0x8(%ebp)
 804a866:	eb 13                	jmp    804a87b <padding+0x1dc0>
 804a868:	8b 45 f8             	mov    -0x8(%ebp),%eax
 804a86b:	8d 50 01             	lea    0x1(%eax),%edx
 804a86e:	8b 45 fc             	mov    -0x4(%ebp),%eax
 804a871:	0f af c2             	imul   %edx,%eax
 804a874:	89 45 fc             	mov    %eax,-0x4(%ebp)
 804a877:	83 45 f8 01          	addl   $0x1,-0x8(%ebp)
 804a87b:	83 7d f8 09          	cmpl   $0x9,-0x8(%ebp)
 804a87f:	7e e7                	jle    804a868 <padding+0x1dad>
 804a881:	c7 45 f8 00 00 00 00 	movl   $0x0,-0x8(%ebp)
 804a888:	eb 13                	jmp    804a89d <padding+0x1de2>
 804a88a:	8b 45 f8             	mov    -0x8(%ebp),%eax
 804a88d:	8d 50 01             	lea    0x1(%eax),%edx
 804a890:	8b 45 fc             	mov    -0x4(%ebp),%eax
 804a893:	0f af c2             	imul   %edx,%eax
 804a896:	89 45 fc             	mov    %eax,-0x4(%ebp)
 804a899:	83 45 f8 01          	addl   $0x1,-0x8(%ebp)
 804a89d:	83 7d f8 09          	cmpl   $0x9,-0x8(%ebp)
 804a8a1:	7e e7                	jle    804a88a <padding+0x1dcf>
 804a8a3:	c7 45 f8 00 00 00 00 	movl   $0x0,-0x8(%ebp)
 804a8aa:	eb 13                	jmp    804a8bf <padding+0x1e04>
 804a8ac:	8b 45 f8             	mov    -0x8(%ebp),%eax
 804a8af:	8d 50 01             	lea    0x1(%eax),%edx
 804a8b2:	8b 45 fc             	mov    -0x4(%ebp),%eax
 804a8b5:	0f af c2             	imul   %edx,%eax
 804a8b8:	89 45 fc             	mov    %eax,-0x4(%ebp)
 804a8bb:	83 45 f8 01          	addl   $0x1,-0x8(%ebp)
 804a8bf:	83 7d f8 09          	cmpl   $0x9,-0x8(%ebp)
 804a8c3:	7e e7                	jle    804a8ac <padding+0x1df1>
 804a8c5:	c7 45 f8 00 00 00 00 	movl   $0x0,-0x8(%ebp)
 804a8cc:	eb 13                	jmp    804a8e1 <padding+0x1e26>
 804a8ce:	8b 45 f8             	mov    -0x8(%ebp),%eax
 804a8d1:	8d 50 01             	lea    0x1(%eax),%edx
 804a8d4:	8b 45 fc             	mov    -0x4(%ebp),%eax
 804a8d7:	0f af c2             	imul   %edx,%eax
 804a8da:	89 45 fc             	mov    %eax,-0x4(%ebp)
 804a8dd:	83 45 f8 01          	addl   $0x1,-0x8(%ebp)
 804a8e1:	83 7d f8 09          	cmpl   $0x9,-0x8(%ebp)
 804a8e5:	7e e7                	jle    804a8ce <padding+0x1e13>
 804a8e7:	c7 45 f8 00 00 00 00 	movl   $0x0,-0x8(%ebp)
 804a8ee:	eb 13                	jmp    804a903 <padding+0x1e48>
 804a8f0:	8b 45 f8             	mov    -0x8(%ebp),%eax
 804a8f3:	8d 50 01             	lea    0x1(%eax),%edx
 804a8f6:	8b 45 fc             	mov    -0x4(%ebp),%eax
 804a8f9:	0f af c2             	imul   %edx,%eax
 804a8fc:	89 45 fc             	mov    %eax,-0x4(%ebp)
 804a8ff:	83 45 f8 01          	addl   $0x1,-0x8(%ebp)
 804a903:	83 7d f8 09          	cmpl   $0x9,-0x8(%ebp)
 804a907:	7e e7                	jle    804a8f0 <padding+0x1e35>
 804a909:	c7 45 f8 00 00 00 00 	movl   $0x0,-0x8(%ebp)
 804a910:	eb 13                	jmp    804a925 <padding+0x1e6a>
 804a912:	8b 45 f8             	mov    -0x8(%ebp),%eax
 804a915:	8d 50 01             	lea    0x1(%eax),%edx
 804a918:	8b 45 fc             	mov    -0x4(%ebp),%eax
 804a91b:	0f af c2             	imul   %edx,%eax
 804a91e:	89 45 fc             	mov    %eax,-0x4(%ebp)
 804a921:	83 45 f8 01          	addl   $0x1,-0x8(%ebp)
 804a925:	83 7d f8 09          	cmpl   $0x9,-0x8(%ebp)
 804a929:	7e e7                	jle    804a912 <padding+0x1e57>
 804a92b:	c7 45 f8 00 00 00 00 	movl   $0x0,-0x8(%ebp)
 804a932:	eb 13                	jmp    804a947 <padding+0x1e8c>
 804a934:	8b 45 f8             	mov    -0x8(%ebp),%eax
 804a937:	8d 50 01             	lea    0x1(%eax),%edx
 804a93a:	8b 45 fc             	mov    -0x4(%ebp),%eax
 804a93d:	0f af c2             	imul   %edx,%eax
 804a940:	89 45 fc             	mov    %eax,-0x4(%ebp)
 804a943:	83 45 f8 01          	addl   $0x1,-0x8(%ebp)
 804a947:	83 7d f8 09          	cmpl   $0x9,-0x8(%ebp)
 804a94b:	7e e7                	jle    804a934 <padding+0x1e79>
 804a94d:	c7 45 f8 00 00 00 00 	movl   $0x0,-0x8(%ebp)
 804a954:	eb 13                	jmp    804a969 <padding+0x1eae>
 804a956:	8b 45 f8             	mov    -0x8(%ebp),%eax
 804a959:	8d 50 01             	lea    0x1(%eax),%edx
 804a95c:	8b 45 fc             	mov    -0x4(%ebp),%eax
 804a95f:	0f af c2             	imul   %edx,%eax
 804a962:	89 45 fc             	mov    %eax,-0x4(%ebp)
 804a965:	83 45 f8 01          	addl   $0x1,-0x8(%ebp)
 804a969:	83 7d f8 09          	cmpl   $0x9,-0x8(%ebp)
 804a96d:	7e e7                	jle    804a956 <padding+0x1e9b>
 804a96f:	c7 45 f8 00 00 00 00 	movl   $0x0,-0x8(%ebp)
 804a976:	eb 13                	jmp    804a98b <padding+0x1ed0>
 804a978:	8b 45 f8             	mov    -0x8(%ebp),%eax
 804a97b:	8d 50 01             	lea    0x1(%eax),%edx
 804a97e:	8b 45 fc             	mov    -0x4(%ebp),%eax
 804a981:	0f af c2             	imul   %edx,%eax
 804a984:	89 45 fc             	mov    %eax,-0x4(%ebp)
 804a987:	83 45 f8 01          	addl   $0x1,-0x8(%ebp)
 804a98b:	83 7d f8 09          	cmpl   $0x9,-0x8(%ebp)
 804a98f:	7e e7                	jle    804a978 <padding+0x1ebd>
 804a991:	c7 45 f8 00 00 00 00 	movl   $0x0,-0x8(%ebp)
 804a998:	eb 13                	jmp    804a9ad <padding+0x1ef2>
 804a99a:	8b 45 f8             	mov    -0x8(%ebp),%eax
 804a99d:	8d 50 01             	lea    0x1(%eax),%edx
 804a9a0:	8b 45 fc             	mov    -0x4(%ebp),%eax
 804a9a3:	0f af c2             	imul   %edx,%eax
 804a9a6:	89 45 fc             	mov    %eax,-0x4(%ebp)
 804a9a9:	83 45 f8 01          	addl   $0x1,-0x8(%ebp)
 804a9ad:	83 7d f8 09          	cmpl   $0x9,-0x8(%ebp)
 804a9b1:	7e e7                	jle    804a99a <padding+0x1edf>
 804a9b3:	c7 45 f8 00 00 00 00 	movl   $0x0,-0x8(%ebp)
 804a9ba:	eb 13                	jmp    804a9cf <padding+0x1f14>
 804a9bc:	8b 45 f8             	mov    -0x8(%ebp),%eax
 804a9bf:	8d 50 01             	lea    0x1(%eax),%edx
 804a9c2:	8b 45 fc             	mov    -0x4(%ebp),%eax
 804a9c5:	0f af c2             	imul   %edx,%eax
 804a9c8:	89 45 fc             	mov    %eax,-0x4(%ebp)
 804a9cb:	83 45 f8 01          	addl   $0x1,-0x8(%ebp)
 804a9cf:	83 7d f8 09          	cmpl   $0x9,-0x8(%ebp)
 804a9d3:	7e e7                	jle    804a9bc <padding+0x1f01>
 804a9d5:	c7 45 f8 00 00 00 00 	movl   $0x0,-0x8(%ebp)
 804a9dc:	eb 13                	jmp    804a9f1 <padding+0x1f36>
 804a9de:	8b 45 f8             	mov    -0x8(%ebp),%eax
 804a9e1:	8d 50 01             	lea    0x1(%eax),%edx
 804a9e4:	8b 45 fc             	mov    -0x4(%ebp),%eax
 804a9e7:	0f af c2             	imul   %edx,%eax
 804a9ea:	89 45 fc             	mov    %eax,-0x4(%ebp)
 804a9ed:	83 45 f8 01          	addl   $0x1,-0x8(%ebp)
 804a9f1:	83 7d f8 09          	cmpl   $0x9,-0x8(%ebp)
 804a9f5:	7e e7                	jle    804a9de <padding+0x1f23>
 804a9f7:	c7 45 f8 00 00 00 00 	movl   $0x0,-0x8(%ebp)
 804a9fe:	eb 13                	jmp    804aa13 <padding+0x1f58>
 804aa00:	8b 45 f8             	mov    -0x8(%ebp),%eax
 804aa03:	8d 50 01             	lea    0x1(%eax),%edx
 804aa06:	8b 45 fc             	mov    -0x4(%ebp),%eax
 804aa09:	0f af c2             	imul   %edx,%eax
 804aa0c:	89 45 fc             	mov    %eax,-0x4(%ebp)
 804aa0f:	83 45 f8 01          	addl   $0x1,-0x8(%ebp)
 804aa13:	83 7d f8 09          	cmpl   $0x9,-0x8(%ebp)
 804aa17:	7e e7                	jle    804aa00 <padding+0x1f45>
 804aa19:	c7 45 f8 00 00 00 00 	movl   $0x0,-0x8(%ebp)
 804aa20:	eb 13                	jmp    804aa35 <padding+0x1f7a>
 804aa22:	8b 45 f8             	mov    -0x8(%ebp),%eax
 804aa25:	8d 50 01             	lea    0x1(%eax),%edx
 804aa28:	8b 45 fc             	mov    -0x4(%ebp),%eax
 804aa2b:	0f af c2             	imul   %edx,%eax
 804aa2e:	89 45 fc             	mov    %eax,-0x4(%ebp)
 804aa31:	83 45 f8 01          	addl   $0x1,-0x8(%ebp)
 804aa35:	83 7d f8 09          	cmpl   $0x9,-0x8(%ebp)
 804aa39:	7e e7                	jle    804aa22 <padding+0x1f67>
 804aa3b:	c7 45 f8 00 00 00 00 	movl   $0x0,-0x8(%ebp)
 804aa42:	eb 13                	jmp    804aa57 <padding+0x1f9c>
 804aa44:	8b 45 f8             	mov    -0x8(%ebp),%eax
 804aa47:	8d 50 01             	lea    0x1(%eax),%edx
 804aa4a:	8b 45 fc             	mov    -0x4(%ebp),%eax
 804aa4d:	0f af c2             	imul   %edx,%eax
 804aa50:	89 45 fc             	mov    %eax,-0x4(%ebp)
 804aa53:	83 45 f8 01          	addl   $0x1,-0x8(%ebp)
 804aa57:	83 7d f8 09          	cmpl   $0x9,-0x8(%ebp)
 804aa5b:	7e e7                	jle    804aa44 <padding+0x1f89>
 804aa5d:	c7 45 f8 00 00 00 00 	movl   $0x0,-0x8(%ebp)
 804aa64:	eb 13                	jmp    804aa79 <padding+0x1fbe>
 804aa66:	8b 45 f8             	mov    -0x8(%ebp),%eax
 804aa69:	8d 50 01             	lea    0x1(%eax),%edx
 804aa6c:	8b 45 fc             	mov    -0x4(%ebp),%eax
 804aa6f:	0f af c2             	imul   %edx,%eax
 804aa72:	89 45 fc             	mov    %eax,-0x4(%ebp)
 804aa75:	83 45 f8 01          	addl   $0x1,-0x8(%ebp)
 804aa79:	83 7d f8 09          	cmpl   $0x9,-0x8(%ebp)
 804aa7d:	7e e7                	jle    804aa66 <padding+0x1fab>
 804aa7f:	c7 45 f8 00 00 00 00 	movl   $0x0,-0x8(%ebp)
 804aa86:	eb 13                	jmp    804aa9b <padding+0x1fe0>
 804aa88:	8b 45 f8             	mov    -0x8(%ebp),%eax
 804aa8b:	8d 50 01             	lea    0x1(%eax),%edx
 804aa8e:	8b 45 fc             	mov    -0x4(%ebp),%eax
 804aa91:	0f af c2             	imul   %edx,%eax
 804aa94:	89 45 fc             	mov    %eax,-0x4(%ebp)
 804aa97:	83 45 f8 01          	addl   $0x1,-0x8(%ebp)
 804aa9b:	83 7d f8 09          	cmpl   $0x9,-0x8(%ebp)
 804aa9f:	7e e7                	jle    804aa88 <padding+0x1fcd>
 804aaa1:	c7 45 f8 00 00 00 00 	movl   $0x0,-0x8(%ebp)
 804aaa8:	eb 13                	jmp    804aabd <padding+0x2002>
 804aaaa:	8b 45 f8             	mov    -0x8(%ebp),%eax
 804aaad:	8d 50 01             	lea    0x1(%eax),%edx
 804aab0:	8b 45 fc             	mov    -0x4(%ebp),%eax
 804aab3:	0f af c2             	imul   %edx,%eax
 804aab6:	89 45 fc             	mov    %eax,-0x4(%ebp)
 804aab9:	83 45 f8 01          	addl   $0x1,-0x8(%ebp)
 804aabd:	83 7d f8 09          	cmpl   $0x9,-0x8(%ebp)
 804aac1:	7e e7                	jle    804aaaa <padding+0x1fef>
 804aac3:	c7 45 f8 00 00 00 00 	movl   $0x0,-0x8(%ebp)
 804aaca:	eb 13                	jmp    804aadf <padding+0x2024>
 804aacc:	8b 45 f8             	mov    -0x8(%ebp),%eax
 804aacf:	8d 50 01             	lea    0x1(%eax),%edx
 804aad2:	8b 45 fc             	mov    -0x4(%ebp),%eax
 804aad5:	0f af c2             	imul   %edx,%eax
 804aad8:	89 45 fc             	mov    %eax,-0x4(%ebp)
 804aadb:	83 45 f8 01          	addl   $0x1,-0x8(%ebp)
 804aadf:	83 7d f8 09          	cmpl   $0x9,-0x8(%ebp)
 804aae3:	7e e7                	jle    804aacc <padding+0x2011>
 804aae5:	c7 45 f8 00 00 00 00 	movl   $0x0,-0x8(%ebp)
 804aaec:	eb 13                	jmp    804ab01 <padding+0x2046>
 804aaee:	8b 45 f8             	mov    -0x8(%ebp),%eax
 804aaf1:	8d 50 01             	lea    0x1(%eax),%edx
 804aaf4:	8b 45 fc             	mov    -0x4(%ebp),%eax
 804aaf7:	0f af c2             	imul   %edx,%eax
 804aafa:	89 45 fc             	mov    %eax,-0x4(%ebp)
 804aafd:	83 45 f8 01          	addl   $0x1,-0x8(%ebp)
 804ab01:	83 7d f8 09          	cmpl   $0x9,-0x8(%ebp)
 804ab05:	7e e7                	jle    804aaee <padding+0x2033>
 804ab07:	c7 45 f8 00 00 00 00 	movl   $0x0,-0x8(%ebp)
 804ab0e:	eb 13                	jmp    804ab23 <padding+0x2068>
 804ab10:	8b 45 f8             	mov    -0x8(%ebp),%eax
 804ab13:	8d 50 01             	lea    0x1(%eax),%edx
 804ab16:	8b 45 fc             	mov    -0x4(%ebp),%eax
 804ab19:	0f af c2             	imul   %edx,%eax
 804ab1c:	89 45 fc             	mov    %eax,-0x4(%ebp)
 804ab1f:	83 45 f8 01          	addl   $0x1,-0x8(%ebp)
 804ab23:	83 7d f8 09          	cmpl   $0x9,-0x8(%ebp)
 804ab27:	7e e7                	jle    804ab10 <padding+0x2055>
 804ab29:	c7 45 f8 00 00 00 00 	movl   $0x0,-0x8(%ebp)
 804ab30:	eb 13                	jmp    804ab45 <padding+0x208a>
 804ab32:	8b 45 f8             	mov    -0x8(%ebp),%eax
 804ab35:	8d 50 01             	lea    0x1(%eax),%edx
 804ab38:	8b 45 fc             	mov    -0x4(%ebp),%eax
 804ab3b:	0f af c2             	imul   %edx,%eax
 804ab3e:	89 45 fc             	mov    %eax,-0x4(%ebp)
 804ab41:	83 45 f8 01          	addl   $0x1,-0x8(%ebp)
 804ab45:	83 7d f8 09          	cmpl   $0x9,-0x8(%ebp)
 804ab49:	7e e7                	jle    804ab32 <padding+0x2077>
 804ab4b:	c7 45 f8 00 00 00 00 	movl   $0x0,-0x8(%ebp)
 804ab52:	eb 13                	jmp    804ab67 <padding+0x20ac>
 804ab54:	8b 45 f8             	mov    -0x8(%ebp),%eax
 804ab57:	8d 50 01             	lea    0x1(%eax),%edx
 804ab5a:	8b 45 fc             	mov    -0x4(%ebp),%eax
 804ab5d:	0f af c2             	imul   %edx,%eax
 804ab60:	89 45 fc             	mov    %eax,-0x4(%ebp)
 804ab63:	83 45 f8 01          	addl   $0x1,-0x8(%ebp)
 804ab67:	83 7d f8 09          	cmpl   $0x9,-0x8(%ebp)
 804ab6b:	7e e7                	jle    804ab54 <padding+0x2099>
 804ab6d:	c7 45 f8 00 00 00 00 	movl   $0x0,-0x8(%ebp)
 804ab74:	eb 13                	jmp    804ab89 <padding+0x20ce>
 804ab76:	8b 45 f8             	mov    -0x8(%ebp),%eax
 804ab79:	8d 50 01             	lea    0x1(%eax),%edx
 804ab7c:	8b 45 fc             	mov    -0x4(%ebp),%eax
 804ab7f:	0f af c2             	imul   %edx,%eax
 804ab82:	89 45 fc             	mov    %eax,-0x4(%ebp)
 804ab85:	83 45 f8 01          	addl   $0x1,-0x8(%ebp)
 804ab89:	83 7d f8 09          	cmpl   $0x9,-0x8(%ebp)
 804ab8d:	7e e7                	jle    804ab76 <padding+0x20bb>
 804ab8f:	c7 45 f8 00 00 00 00 	movl   $0x0,-0x8(%ebp)
 804ab96:	eb 13                	jmp    804abab <padding+0x20f0>
 804ab98:	8b 45 f8             	mov    -0x8(%ebp),%eax
 804ab9b:	8d 50 01             	lea    0x1(%eax),%edx
 804ab9e:	8b 45 fc             	mov    -0x4(%ebp),%eax
 804aba1:	0f af c2             	imul   %edx,%eax
 804aba4:	89 45 fc             	mov    %eax,-0x4(%ebp)
 804aba7:	83 45 f8 01          	addl   $0x1,-0x8(%ebp)
 804abab:	83 7d f8 09          	cmpl   $0x9,-0x8(%ebp)
 804abaf:	7e e7                	jle    804ab98 <padding+0x20dd>
 804abb1:	c7 45 f8 00 00 00 00 	movl   $0x0,-0x8(%ebp)
 804abb8:	eb 13                	jmp    804abcd <padding+0x2112>
 804abba:	8b 45 f8             	mov    -0x8(%ebp),%eax
 804abbd:	8d 50 01             	lea    0x1(%eax),%edx
 804abc0:	8b 45 fc             	mov    -0x4(%ebp),%eax
 804abc3:	0f af c2             	imul   %edx,%eax
 804abc6:	89 45 fc             	mov    %eax,-0x4(%ebp)
 804abc9:	83 45 f8 01          	addl   $0x1,-0x8(%ebp)
 804abcd:	83 7d f8 09          	cmpl   $0x9,-0x8(%ebp)
 804abd1:	7e e7                	jle    804abba <padding+0x20ff>
 804abd3:	c7 45 f8 00 00 00 00 	movl   $0x0,-0x8(%ebp)
 804abda:	eb 13                	jmp    804abef <padding+0x2134>
 804abdc:	8b 45 f8             	mov    -0x8(%ebp),%eax
 804abdf:	8d 50 01             	lea    0x1(%eax),%edx
 804abe2:	8b 45 fc             	mov    -0x4(%ebp),%eax
 804abe5:	0f af c2             	imul   %edx,%eax
 804abe8:	89 45 fc             	mov    %eax,-0x4(%ebp)
 804abeb:	83 45 f8 01          	addl   $0x1,-0x8(%ebp)
 804abef:	83 7d f8 09          	cmpl   $0x9,-0x8(%ebp)
 804abf3:	7e e7                	jle    804abdc <padding+0x2121>
 804abf5:	c7 45 f8 00 00 00 00 	movl   $0x0,-0x8(%ebp)
 804abfc:	eb 13                	jmp    804ac11 <padding+0x2156>
 804abfe:	8b 45 f8             	mov    -0x8(%ebp),%eax
 804ac01:	8d 50 01             	lea    0x1(%eax),%edx
 804ac04:	8b 45 fc             	mov    -0x4(%ebp),%eax
 804ac07:	0f af c2             	imul   %edx,%eax
 804ac0a:	89 45 fc             	mov    %eax,-0x4(%ebp)
 804ac0d:	83 45 f8 01          	addl   $0x1,-0x8(%ebp)
 804ac11:	83 7d f8 09          	cmpl   $0x9,-0x8(%ebp)
 804ac15:	7e e7                	jle    804abfe <padding+0x2143>
 804ac17:	c7 45 f8 00 00 00 00 	movl   $0x0,-0x8(%ebp)
 804ac1e:	eb 13                	jmp    804ac33 <padding+0x2178>
 804ac20:	8b 45 f8             	mov    -0x8(%ebp),%eax
 804ac23:	8d 50 01             	lea    0x1(%eax),%edx
 804ac26:	8b 45 fc             	mov    -0x4(%ebp),%eax
 804ac29:	0f af c2             	imul   %edx,%eax
 804ac2c:	89 45 fc             	mov    %eax,-0x4(%ebp)
 804ac2f:	83 45 f8 01          	addl   $0x1,-0x8(%ebp)
 804ac33:	83 7d f8 09          	cmpl   $0x9,-0x8(%ebp)
 804ac37:	7e e7                	jle    804ac20 <padding+0x2165>
 804ac39:	c7 45 f8 00 00 00 00 	movl   $0x0,-0x8(%ebp)
 804ac40:	eb 13                	jmp    804ac55 <padding+0x219a>
 804ac42:	8b 45 f8             	mov    -0x8(%ebp),%eax
 804ac45:	8d 50 01             	lea    0x1(%eax),%edx
 804ac48:	8b 45 fc             	mov    -0x4(%ebp),%eax
 804ac4b:	0f af c2             	imul   %edx,%eax
 804ac4e:	89 45 fc             	mov    %eax,-0x4(%ebp)
 804ac51:	83 45 f8 01          	addl   $0x1,-0x8(%ebp)
 804ac55:	83 7d f8 09          	cmpl   $0x9,-0x8(%ebp)
 804ac59:	7e e7                	jle    804ac42 <padding+0x2187>
 804ac5b:	c7 45 f8 00 00 00 00 	movl   $0x0,-0x8(%ebp)
 804ac62:	eb 13                	jmp    804ac77 <padding+0x21bc>
 804ac64:	8b 45 f8             	mov    -0x8(%ebp),%eax
 804ac67:	8d 50 01             	lea    0x1(%eax),%edx
 804ac6a:	8b 45 fc             	mov    -0x4(%ebp),%eax
 804ac6d:	0f af c2             	imul   %edx,%eax
 804ac70:	89 45 fc             	mov    %eax,-0x4(%ebp)
 804ac73:	83 45 f8 01          	addl   $0x1,-0x8(%ebp)
 804ac77:	83 7d f8 09          	cmpl   $0x9,-0x8(%ebp)
 804ac7b:	7e e7                	jle    804ac64 <padding+0x21a9>
 804ac7d:	c7 45 f8 00 00 00 00 	movl   $0x0,-0x8(%ebp)
 804ac84:	eb 13                	jmp    804ac99 <padding+0x21de>
 804ac86:	8b 45 f8             	mov    -0x8(%ebp),%eax
 804ac89:	8d 50 01             	lea    0x1(%eax),%edx
 804ac8c:	8b 45 fc             	mov    -0x4(%ebp),%eax
 804ac8f:	0f af c2             	imul   %edx,%eax
 804ac92:	89 45 fc             	mov    %eax,-0x4(%ebp)
 804ac95:	83 45 f8 01          	addl   $0x1,-0x8(%ebp)
 804ac99:	83 7d f8 09          	cmpl   $0x9,-0x8(%ebp)
 804ac9d:	7e e7                	jle    804ac86 <padding+0x21cb>
 804ac9f:	c7 45 f8 00 00 00 00 	movl   $0x0,-0x8(%ebp)
 804aca6:	eb 13                	jmp    804acbb <padding+0x2200>
 804aca8:	8b 45 f8             	mov    -0x8(%ebp),%eax
 804acab:	8d 50 01             	lea    0x1(%eax),%edx
 804acae:	8b 45 fc             	mov    -0x4(%ebp),%eax
 804acb1:	0f af c2             	imul   %edx,%eax
 804acb4:	89 45 fc             	mov    %eax,-0x4(%ebp)
 804acb7:	83 45 f8 01          	addl   $0x1,-0x8(%ebp)
 804acbb:	83 7d f8 09          	cmpl   $0x9,-0x8(%ebp)
 804acbf:	7e e7                	jle    804aca8 <padding+0x21ed>
 804acc1:	c7 45 f8 00 00 00 00 	movl   $0x0,-0x8(%ebp)
 804acc8:	eb 13                	jmp    804acdd <padding+0x2222>
 804acca:	8b 45 f8             	mov    -0x8(%ebp),%eax
 804accd:	8d 50 01             	lea    0x1(%eax),%edx
 804acd0:	8b 45 fc             	mov    -0x4(%ebp),%eax
 804acd3:	0f af c2             	imul   %edx,%eax
 804acd6:	89 45 fc             	mov    %eax,-0x4(%ebp)
 804acd9:	83 45 f8 01          	addl   $0x1,-0x8(%ebp)
 804acdd:	83 7d f8 09          	cmpl   $0x9,-0x8(%ebp)
 804ace1:	7e e7                	jle    804acca <padding+0x220f>
 804ace3:	c7 45 f8 00 00 00 00 	movl   $0x0,-0x8(%ebp)
 804acea:	eb 13                	jmp    804acff <padding+0x2244>
 804acec:	8b 45 f8             	mov    -0x8(%ebp),%eax
 804acef:	8d 50 01             	lea    0x1(%eax),%edx
 804acf2:	8b 45 fc             	mov    -0x4(%ebp),%eax
 804acf5:	0f af c2             	imul   %edx,%eax
 804acf8:	89 45 fc             	mov    %eax,-0x4(%ebp)
 804acfb:	83 45 f8 01          	addl   $0x1,-0x8(%ebp)
 804acff:	83 7d f8 09          	cmpl   $0x9,-0x8(%ebp)
 804ad03:	7e e7                	jle    804acec <padding+0x2231>
 804ad05:	c7 45 f8 00 00 00 00 	movl   $0x0,-0x8(%ebp)
 804ad0c:	eb 13                	jmp    804ad21 <padding+0x2266>
 804ad0e:	8b 45 f8             	mov    -0x8(%ebp),%eax
 804ad11:	8d 50 01             	lea    0x1(%eax),%edx
 804ad14:	8b 45 fc             	mov    -0x4(%ebp),%eax
 804ad17:	0f af c2             	imul   %edx,%eax
 804ad1a:	89 45 fc             	mov    %eax,-0x4(%ebp)
 804ad1d:	83 45 f8 01          	addl   $0x1,-0x8(%ebp)
 804ad21:	83 7d f8 09          	cmpl   $0x9,-0x8(%ebp)
 804ad25:	7e e7                	jle    804ad0e <padding+0x2253>
 804ad27:	c7 45 f8 00 00 00 00 	movl   $0x0,-0x8(%ebp)
 804ad2e:	eb 13                	jmp    804ad43 <padding+0x2288>
 804ad30:	8b 45 f8             	mov    -0x8(%ebp),%eax
 804ad33:	8d 50 01             	lea    0x1(%eax),%edx
 804ad36:	8b 45 fc             	mov    -0x4(%ebp),%eax
 804ad39:	0f af c2             	imul   %edx,%eax
 804ad3c:	89 45 fc             	mov    %eax,-0x4(%ebp)
 804ad3f:	83 45 f8 01          	addl   $0x1,-0x8(%ebp)
 804ad43:	83 7d f8 09          	cmpl   $0x9,-0x8(%ebp)
 804ad47:	7e e7                	jle    804ad30 <padding+0x2275>
 804ad49:	c7 45 f8 00 00 00 00 	movl   $0x0,-0x8(%ebp)
 804ad50:	eb 13                	jmp    804ad65 <padding+0x22aa>
 804ad52:	8b 45 f8             	mov    -0x8(%ebp),%eax
 804ad55:	8d 50 01             	lea    0x1(%eax),%edx
 804ad58:	8b 45 fc             	mov    -0x4(%ebp),%eax
 804ad5b:	0f af c2             	imul   %edx,%eax
 804ad5e:	89 45 fc             	mov    %eax,-0x4(%ebp)
 804ad61:	83 45 f8 01          	addl   $0x1,-0x8(%ebp)
 804ad65:	83 7d f8 09          	cmpl   $0x9,-0x8(%ebp)
 804ad69:	7e e7                	jle    804ad52 <padding+0x2297>
 804ad6b:	c7 45 f8 00 00 00 00 	movl   $0x0,-0x8(%ebp)
 804ad72:	eb 13                	jmp    804ad87 <padding+0x22cc>
 804ad74:	8b 45 f8             	mov    -0x8(%ebp),%eax
 804ad77:	8d 50 01             	lea    0x1(%eax),%edx
 804ad7a:	8b 45 fc             	mov    -0x4(%ebp),%eax
 804ad7d:	0f af c2             	imul   %edx,%eax
 804ad80:	89 45 fc             	mov    %eax,-0x4(%ebp)
 804ad83:	83 45 f8 01          	addl   $0x1,-0x8(%ebp)
 804ad87:	83 7d f8 09          	cmpl   $0x9,-0x8(%ebp)
 804ad8b:	7e e7                	jle    804ad74 <padding+0x22b9>
 804ad8d:	c7 45 f8 00 00 00 00 	movl   $0x0,-0x8(%ebp)
 804ad94:	eb 13                	jmp    804ada9 <padding+0x22ee>
 804ad96:	8b 45 f8             	mov    -0x8(%ebp),%eax
 804ad99:	8d 50 01             	lea    0x1(%eax),%edx
 804ad9c:	8b 45 fc             	mov    -0x4(%ebp),%eax
 804ad9f:	0f af c2             	imul   %edx,%eax
 804ada2:	89 45 fc             	mov    %eax,-0x4(%ebp)
 804ada5:	83 45 f8 01          	addl   $0x1,-0x8(%ebp)
 804ada9:	83 7d f8 09          	cmpl   $0x9,-0x8(%ebp)
 804adad:	7e e7                	jle    804ad96 <padding+0x22db>
 804adaf:	c7 45 f8 00 00 00 00 	movl   $0x0,-0x8(%ebp)
 804adb6:	eb 13                	jmp    804adcb <padding+0x2310>
 804adb8:	8b 45 f8             	mov    -0x8(%ebp),%eax
 804adbb:	8d 50 01             	lea    0x1(%eax),%edx
 804adbe:	8b 45 fc             	mov    -0x4(%ebp),%eax
 804adc1:	0f af c2             	imul   %edx,%eax
 804adc4:	89 45 fc             	mov    %eax,-0x4(%ebp)
 804adc7:	83 45 f8 01          	addl   $0x1,-0x8(%ebp)
 804adcb:	83 7d f8 09          	cmpl   $0x9,-0x8(%ebp)
 804adcf:	7e e7                	jle    804adb8 <padding+0x22fd>
 804add1:	c7 45 f8 00 00 00 00 	movl   $0x0,-0x8(%ebp)
 804add8:	eb 13                	jmp    804aded <padding+0x2332>
 804adda:	8b 45 f8             	mov    -0x8(%ebp),%eax
 804addd:	8d 50 01             	lea    0x1(%eax),%edx
 804ade0:	8b 45 fc             	mov    -0x4(%ebp),%eax
 804ade3:	0f af c2             	imul   %edx,%eax
 804ade6:	89 45 fc             	mov    %eax,-0x4(%ebp)
 804ade9:	83 45 f8 01          	addl   $0x1,-0x8(%ebp)
 804aded:	83 7d f8 09          	cmpl   $0x9,-0x8(%ebp)
 804adf1:	7e e7                	jle    804adda <padding+0x231f>
 804adf3:	c7 45 f8 00 00 00 00 	movl   $0x0,-0x8(%ebp)
 804adfa:	eb 13                	jmp    804ae0f <padding+0x2354>
 804adfc:	8b 45 f8             	mov    -0x8(%ebp),%eax
 804adff:	8d 50 01             	lea    0x1(%eax),%edx
 804ae02:	8b 45 fc             	mov    -0x4(%ebp),%eax
 804ae05:	0f af c2             	imul   %edx,%eax
 804ae08:	89 45 fc             	mov    %eax,-0x4(%ebp)
 804ae0b:	83 45 f8 01          	addl   $0x1,-0x8(%ebp)
 804ae0f:	83 7d f8 09          	cmpl   $0x9,-0x8(%ebp)
 804ae13:	7e e7                	jle    804adfc <padding+0x2341>
 804ae15:	c7 45 f8 00 00 00 00 	movl   $0x0,-0x8(%ebp)
 804ae1c:	eb 13                	jmp    804ae31 <padding+0x2376>
 804ae1e:	8b 45 f8             	mov    -0x8(%ebp),%eax
 804ae21:	8d 50 01             	lea    0x1(%eax),%edx
 804ae24:	8b 45 fc             	mov    -0x4(%ebp),%eax
 804ae27:	0f af c2             	imul   %edx,%eax
 804ae2a:	89 45 fc             	mov    %eax,-0x4(%ebp)
 804ae2d:	83 45 f8 01          	addl   $0x1,-0x8(%ebp)
 804ae31:	83 7d f8 09          	cmpl   $0x9,-0x8(%ebp)
 804ae35:	7e e7                	jle    804ae1e <padding+0x2363>
 804ae37:	c7 45 f8 00 00 00 00 	movl   $0x0,-0x8(%ebp)
 804ae3e:	eb 13                	jmp    804ae53 <padding+0x2398>
 804ae40:	8b 45 f8             	mov    -0x8(%ebp),%eax
 804ae43:	8d 50 01             	lea    0x1(%eax),%edx
 804ae46:	8b 45 fc             	mov    -0x4(%ebp),%eax
 804ae49:	0f af c2             	imul   %edx,%eax
 804ae4c:	89 45 fc             	mov    %eax,-0x4(%ebp)
 804ae4f:	83 45 f8 01          	addl   $0x1,-0x8(%ebp)
 804ae53:	83 7d f8 09          	cmpl   $0x9,-0x8(%ebp)
 804ae57:	7e e7                	jle    804ae40 <padding+0x2385>
 804ae59:	c7 45 f8 00 00 00 00 	movl   $0x0,-0x8(%ebp)
 804ae60:	eb 13                	jmp    804ae75 <padding+0x23ba>
 804ae62:	8b 45 f8             	mov    -0x8(%ebp),%eax
 804ae65:	8d 50 01             	lea    0x1(%eax),%edx
 804ae68:	8b 45 fc             	mov    -0x4(%ebp),%eax
 804ae6b:	0f af c2             	imul   %edx,%eax
 804ae6e:	89 45 fc             	mov    %eax,-0x4(%ebp)
 804ae71:	83 45 f8 01          	addl   $0x1,-0x8(%ebp)
 804ae75:	83 7d f8 09          	cmpl   $0x9,-0x8(%ebp)
 804ae79:	7e e7                	jle    804ae62 <padding+0x23a7>
 804ae7b:	c7 45 f8 00 00 00 00 	movl   $0x0,-0x8(%ebp)
 804ae82:	eb 13                	jmp    804ae97 <padding+0x23dc>
 804ae84:	8b 45 f8             	mov    -0x8(%ebp),%eax
 804ae87:	8d 50 01             	lea    0x1(%eax),%edx
 804ae8a:	8b 45 fc             	mov    -0x4(%ebp),%eax
 804ae8d:	0f af c2             	imul   %edx,%eax
 804ae90:	89 45 fc             	mov    %eax,-0x4(%ebp)
 804ae93:	83 45 f8 01          	addl   $0x1,-0x8(%ebp)
 804ae97:	83 7d f8 09          	cmpl   $0x9,-0x8(%ebp)
 804ae9b:	7e e7                	jle    804ae84 <padding+0x23c9>
 804ae9d:	c7 45 f8 00 00 00 00 	movl   $0x0,-0x8(%ebp)
 804aea4:	eb 13                	jmp    804aeb9 <padding+0x23fe>
 804aea6:	8b 45 f8             	mov    -0x8(%ebp),%eax
 804aea9:	8d 50 01             	lea    0x1(%eax),%edx
 804aeac:	8b 45 fc             	mov    -0x4(%ebp),%eax
 804aeaf:	0f af c2             	imul   %edx,%eax
 804aeb2:	89 45 fc             	mov    %eax,-0x4(%ebp)
 804aeb5:	83 45 f8 01          	addl   $0x1,-0x8(%ebp)
 804aeb9:	83 7d f8 09          	cmpl   $0x9,-0x8(%ebp)
 804aebd:	7e e7                	jle    804aea6 <padding+0x23eb>
 804aebf:	c7 45 f8 00 00 00 00 	movl   $0x0,-0x8(%ebp)
 804aec6:	eb 13                	jmp    804aedb <padding+0x2420>
 804aec8:	8b 45 f8             	mov    -0x8(%ebp),%eax
 804aecb:	8d 50 01             	lea    0x1(%eax),%edx
 804aece:	8b 45 fc             	mov    -0x4(%ebp),%eax
 804aed1:	0f af c2             	imul   %edx,%eax
 804aed4:	89 45 fc             	mov    %eax,-0x4(%ebp)
 804aed7:	83 45 f8 01          	addl   $0x1,-0x8(%ebp)
 804aedb:	83 7d f8 09          	cmpl   $0x9,-0x8(%ebp)
 804aedf:	7e e7                	jle    804aec8 <padding+0x240d>
 804aee1:	c7 45 f8 00 00 00 00 	movl   $0x0,-0x8(%ebp)
 804aee8:	eb 13                	jmp    804aefd <padding+0x2442>
 804aeea:	8b 45 f8             	mov    -0x8(%ebp),%eax
 804aeed:	8d 50 01             	lea    0x1(%eax),%edx
 804aef0:	8b 45 fc             	mov    -0x4(%ebp),%eax
 804aef3:	0f af c2             	imul   %edx,%eax
 804aef6:	89 45 fc             	mov    %eax,-0x4(%ebp)
 804aef9:	83 45 f8 01          	addl   $0x1,-0x8(%ebp)
 804aefd:	83 7d f8 09          	cmpl   $0x9,-0x8(%ebp)
 804af01:	7e e7                	jle    804aeea <padding+0x242f>
 804af03:	c7 45 f8 00 00 00 00 	movl   $0x0,-0x8(%ebp)
 804af0a:	eb 13                	jmp    804af1f <padding+0x2464>
 804af0c:	8b 45 f8             	mov    -0x8(%ebp),%eax
 804af0f:	8d 50 01             	lea    0x1(%eax),%edx
 804af12:	8b 45 fc             	mov    -0x4(%ebp),%eax
 804af15:	0f af c2             	imul   %edx,%eax
 804af18:	89 45 fc             	mov    %eax,-0x4(%ebp)
 804af1b:	83 45 f8 01          	addl   $0x1,-0x8(%ebp)
 804af1f:	83 7d f8 09          	cmpl   $0x9,-0x8(%ebp)
 804af23:	7e e7                	jle    804af0c <padding+0x2451>
 804af25:	c7 45 f8 00 00 00 00 	movl   $0x0,-0x8(%ebp)
 804af2c:	eb 13                	jmp    804af41 <padding+0x2486>
 804af2e:	8b 45 f8             	mov    -0x8(%ebp),%eax
 804af31:	8d 50 01             	lea    0x1(%eax),%edx
 804af34:	8b 45 fc             	mov    -0x4(%ebp),%eax
 804af37:	0f af c2             	imul   %edx,%eax
 804af3a:	89 45 fc             	mov    %eax,-0x4(%ebp)
 804af3d:	83 45 f8 01          	addl   $0x1,-0x8(%ebp)
 804af41:	83 7d f8 09          	cmpl   $0x9,-0x8(%ebp)
 804af45:	7e e7                	jle    804af2e <padding+0x2473>
 804af47:	c7 45 f8 00 00 00 00 	movl   $0x0,-0x8(%ebp)
 804af4e:	eb 13                	jmp    804af63 <padding+0x24a8>
 804af50:	8b 45 f8             	mov    -0x8(%ebp),%eax
 804af53:	8d 50 01             	lea    0x1(%eax),%edx
 804af56:	8b 45 fc             	mov    -0x4(%ebp),%eax
 804af59:	0f af c2             	imul   %edx,%eax
 804af5c:	89 45 fc             	mov    %eax,-0x4(%ebp)
 804af5f:	83 45 f8 01          	addl   $0x1,-0x8(%ebp)
 804af63:	83 7d f8 09          	cmpl   $0x9,-0x8(%ebp)
 804af67:	7e e7                	jle    804af50 <padding+0x2495>
 804af69:	c7 45 f8 00 00 00 00 	movl   $0x0,-0x8(%ebp)
 804af70:	eb 13                	jmp    804af85 <padding+0x24ca>
 804af72:	8b 45 f8             	mov    -0x8(%ebp),%eax
 804af75:	8d 50 01             	lea    0x1(%eax),%edx
 804af78:	8b 45 fc             	mov    -0x4(%ebp),%eax
 804af7b:	0f af c2             	imul   %edx,%eax
 804af7e:	89 45 fc             	mov    %eax,-0x4(%ebp)
 804af81:	83 45 f8 01          	addl   $0x1,-0x8(%ebp)
 804af85:	83 7d f8 09          	cmpl   $0x9,-0x8(%ebp)
 804af89:	7e e7                	jle    804af72 <padding+0x24b7>
 804af8b:	c7 45 f8 00 00 00 00 	movl   $0x0,-0x8(%ebp)
 804af92:	eb 13                	jmp    804afa7 <padding+0x24ec>
 804af94:	8b 45 f8             	mov    -0x8(%ebp),%eax
 804af97:	8d 50 01             	lea    0x1(%eax),%edx
 804af9a:	8b 45 fc             	mov    -0x4(%ebp),%eax
 804af9d:	0f af c2             	imul   %edx,%eax
 804afa0:	89 45 fc             	mov    %eax,-0x4(%ebp)
 804afa3:	83 45 f8 01          	addl   $0x1,-0x8(%ebp)
 804afa7:	83 7d f8 09          	cmpl   $0x9,-0x8(%ebp)
 804afab:	7e e7                	jle    804af94 <padding+0x24d9>
 804afad:	c7 45 f8 00 00 00 00 	movl   $0x0,-0x8(%ebp)
 804afb4:	eb 13                	jmp    804afc9 <padding+0x250e>
 804afb6:	8b 45 f8             	mov    -0x8(%ebp),%eax
 804afb9:	8d 50 01             	lea    0x1(%eax),%edx
 804afbc:	8b 45 fc             	mov    -0x4(%ebp),%eax
 804afbf:	0f af c2             	imul   %edx,%eax
 804afc2:	89 45 fc             	mov    %eax,-0x4(%ebp)
 804afc5:	83 45 f8 01          	addl   $0x1,-0x8(%ebp)
 804afc9:	83 7d f8 09          	cmpl   $0x9,-0x8(%ebp)
 804afcd:	7e e7                	jle    804afb6 <padding+0x24fb>
 804afcf:	c7 45 f8 00 00 00 00 	movl   $0x0,-0x8(%ebp)
 804afd6:	eb 13                	jmp    804afeb <padding+0x2530>
 804afd8:	8b 45 f8             	mov    -0x8(%ebp),%eax
 804afdb:	8d 50 01             	lea    0x1(%eax),%edx
 804afde:	8b 45 fc             	mov    -0x4(%ebp),%eax
 804afe1:	0f af c2             	imul   %edx,%eax
 804afe4:	89 45 fc             	mov    %eax,-0x4(%ebp)
 804afe7:	83 45 f8 01          	addl   $0x1,-0x8(%ebp)
 804afeb:	83 7d f8 09          	cmpl   $0x9,-0x8(%ebp)
 804afef:	7e e7                	jle    804afd8 <padding+0x251d>
 804aff1:	c7 45 f8 00 00 00 00 	movl   $0x0,-0x8(%ebp)
 804aff8:	eb 13                	jmp    804b00d <padding+0x2552>
 804affa:	8b 45 f8             	mov    -0x8(%ebp),%eax
 804affd:	8d 50 01             	lea    0x1(%eax),%edx
 804b000:	8b 45 fc             	mov    -0x4(%ebp),%eax
 804b003:	0f af c2             	imul   %edx,%eax
 804b006:	89 45 fc             	mov    %eax,-0x4(%ebp)
 804b009:	83 45 f8 01          	addl   $0x1,-0x8(%ebp)
 804b00d:	83 7d f8 09          	cmpl   $0x9,-0x8(%ebp)
 804b011:	7e e7                	jle    804affa <padding+0x253f>
 804b013:	c7 45 f8 00 00 00 00 	movl   $0x0,-0x8(%ebp)
 804b01a:	eb 13                	jmp    804b02f <padding+0x2574>
 804b01c:	8b 45 f8             	mov    -0x8(%ebp),%eax
 804b01f:	8d 50 01             	lea    0x1(%eax),%edx
 804b022:	8b 45 fc             	mov    -0x4(%ebp),%eax
 804b025:	0f af c2             	imul   %edx,%eax
 804b028:	89 45 fc             	mov    %eax,-0x4(%ebp)
 804b02b:	83 45 f8 01          	addl   $0x1,-0x8(%ebp)
 804b02f:	83 7d f8 09          	cmpl   $0x9,-0x8(%ebp)
 804b033:	7e e7                	jle    804b01c <padding+0x2561>
 804b035:	c7 45 f8 00 00 00 00 	movl   $0x0,-0x8(%ebp)
 804b03c:	eb 13                	jmp    804b051 <padding+0x2596>
 804b03e:	8b 45 f8             	mov    -0x8(%ebp),%eax
 804b041:	8d 50 01             	lea    0x1(%eax),%edx
 804b044:	8b 45 fc             	mov    -0x4(%ebp),%eax
 804b047:	0f af c2             	imul   %edx,%eax
 804b04a:	89 45 fc             	mov    %eax,-0x4(%ebp)
 804b04d:	83 45 f8 01          	addl   $0x1,-0x8(%ebp)
 804b051:	83 7d f8 09          	cmpl   $0x9,-0x8(%ebp)
 804b055:	7e e7                	jle    804b03e <padding+0x2583>
 804b057:	c7 45 f8 00 00 00 00 	movl   $0x0,-0x8(%ebp)
 804b05e:	eb 13                	jmp    804b073 <padding+0x25b8>
 804b060:	8b 45 f8             	mov    -0x8(%ebp),%eax
 804b063:	8d 50 01             	lea    0x1(%eax),%edx
 804b066:	8b 45 fc             	mov    -0x4(%ebp),%eax
 804b069:	0f af c2             	imul   %edx,%eax
 804b06c:	89 45 fc             	mov    %eax,-0x4(%ebp)
 804b06f:	83 45 f8 01          	addl   $0x1,-0x8(%ebp)
 804b073:	83 7d f8 09          	cmpl   $0x9,-0x8(%ebp)
 804b077:	7e e7                	jle    804b060 <padding+0x25a5>
 804b079:	c7 45 f8 00 00 00 00 	movl   $0x0,-0x8(%ebp)
 804b080:	eb 13                	jmp    804b095 <padding+0x25da>
 804b082:	8b 45 f8             	mov    -0x8(%ebp),%eax
 804b085:	8d 50 01             	lea    0x1(%eax),%edx
 804b088:	8b 45 fc             	mov    -0x4(%ebp),%eax
 804b08b:	0f af c2             	imul   %edx,%eax
 804b08e:	89 45 fc             	mov    %eax,-0x4(%ebp)
 804b091:	83 45 f8 01          	addl   $0x1,-0x8(%ebp)
 804b095:	83 7d f8 09          	cmpl   $0x9,-0x8(%ebp)
 804b099:	7e e7                	jle    804b082 <padding+0x25c7>
 804b09b:	c7 45 f8 00 00 00 00 	movl   $0x0,-0x8(%ebp)
 804b0a2:	eb 13                	jmp    804b0b7 <padding+0x25fc>
 804b0a4:	8b 45 f8             	mov    -0x8(%ebp),%eax
 804b0a7:	8d 50 01             	lea    0x1(%eax),%edx
 804b0aa:	8b 45 fc             	mov    -0x4(%ebp),%eax
 804b0ad:	0f af c2             	imul   %edx,%eax
 804b0b0:	89 45 fc             	mov    %eax,-0x4(%ebp)
 804b0b3:	83 45 f8 01          	addl   $0x1,-0x8(%ebp)
 804b0b7:	83 7d f8 09          	cmpl   $0x9,-0x8(%ebp)
 804b0bb:	7e e7                	jle    804b0a4 <padding+0x25e9>
 804b0bd:	c7 45 f8 00 00 00 00 	movl   $0x0,-0x8(%ebp)
 804b0c4:	eb 13                	jmp    804b0d9 <padding+0x261e>
 804b0c6:	8b 45 f8             	mov    -0x8(%ebp),%eax
 804b0c9:	8d 50 01             	lea    0x1(%eax),%edx
 804b0cc:	8b 45 fc             	mov    -0x4(%ebp),%eax
 804b0cf:	0f af c2             	imul   %edx,%eax
 804b0d2:	89 45 fc             	mov    %eax,-0x4(%ebp)
 804b0d5:	83 45 f8 01          	addl   $0x1,-0x8(%ebp)
 804b0d9:	83 7d f8 09          	cmpl   $0x9,-0x8(%ebp)
 804b0dd:	7e e7                	jle    804b0c6 <padding+0x260b>
 804b0df:	c7 45 f8 00 00 00 00 	movl   $0x0,-0x8(%ebp)
 804b0e6:	eb 13                	jmp    804b0fb <padding+0x2640>
 804b0e8:	8b 45 f8             	mov    -0x8(%ebp),%eax
 804b0eb:	8d 50 01             	lea    0x1(%eax),%edx
 804b0ee:	8b 45 fc             	mov    -0x4(%ebp),%eax
 804b0f1:	0f af c2             	imul   %edx,%eax
 804b0f4:	89 45 fc             	mov    %eax,-0x4(%ebp)
 804b0f7:	83 45 f8 01          	addl   $0x1,-0x8(%ebp)
 804b0fb:	83 7d f8 09          	cmpl   $0x9,-0x8(%ebp)
 804b0ff:	7e e7                	jle    804b0e8 <padding+0x262d>
 804b101:	c7 45 f8 00 00 00 00 	movl   $0x0,-0x8(%ebp)
 804b108:	eb 13                	jmp    804b11d <padding+0x2662>
 804b10a:	8b 45 f8             	mov    -0x8(%ebp),%eax
 804b10d:	8d 50 01             	lea    0x1(%eax),%edx
 804b110:	8b 45 fc             	mov    -0x4(%ebp),%eax
 804b113:	0f af c2             	imul   %edx,%eax
 804b116:	89 45 fc             	mov    %eax,-0x4(%ebp)
 804b119:	83 45 f8 01          	addl   $0x1,-0x8(%ebp)
 804b11d:	83 7d f8 09          	cmpl   $0x9,-0x8(%ebp)
 804b121:	7e e7                	jle    804b10a <padding+0x264f>
 804b123:	c7 45 f8 00 00 00 00 	movl   $0x0,-0x8(%ebp)
 804b12a:	eb 13                	jmp    804b13f <padding+0x2684>
 804b12c:	8b 45 f8             	mov    -0x8(%ebp),%eax
 804b12f:	8d 50 01             	lea    0x1(%eax),%edx
 804b132:	8b 45 fc             	mov    -0x4(%ebp),%eax
 804b135:	0f af c2             	imul   %edx,%eax
 804b138:	89 45 fc             	mov    %eax,-0x4(%ebp)
 804b13b:	83 45 f8 01          	addl   $0x1,-0x8(%ebp)
 804b13f:	83 7d f8 09          	cmpl   $0x9,-0x8(%ebp)
 804b143:	7e e7                	jle    804b12c <padding+0x2671>
 804b145:	c7 45 f8 00 00 00 00 	movl   $0x0,-0x8(%ebp)
 804b14c:	eb 13                	jmp    804b161 <padding+0x26a6>
 804b14e:	8b 45 f8             	mov    -0x8(%ebp),%eax
 804b151:	8d 50 01             	lea    0x1(%eax),%edx
 804b154:	8b 45 fc             	mov    -0x4(%ebp),%eax
 804b157:	0f af c2             	imul   %edx,%eax
 804b15a:	89 45 fc             	mov    %eax,-0x4(%ebp)
 804b15d:	83 45 f8 01          	addl   $0x1,-0x8(%ebp)
 804b161:	83 7d f8 09          	cmpl   $0x9,-0x8(%ebp)
 804b165:	7e e7                	jle    804b14e <padding+0x2693>
 804b167:	c7 45 f8 00 00 00 00 	movl   $0x0,-0x8(%ebp)
 804b16e:	eb 13                	jmp    804b183 <padding+0x26c8>
 804b170:	8b 45 f8             	mov    -0x8(%ebp),%eax
 804b173:	8d 50 01             	lea    0x1(%eax),%edx
 804b176:	8b 45 fc             	mov    -0x4(%ebp),%eax
 804b179:	0f af c2             	imul   %edx,%eax
 804b17c:	89 45 fc             	mov    %eax,-0x4(%ebp)
 804b17f:	83 45 f8 01          	addl   $0x1,-0x8(%ebp)
 804b183:	83 7d f8 09          	cmpl   $0x9,-0x8(%ebp)
 804b187:	7e e7                	jle    804b170 <padding+0x26b5>
 804b189:	c7 45 f8 00 00 00 00 	movl   $0x0,-0x8(%ebp)
 804b190:	eb 13                	jmp    804b1a5 <padding+0x26ea>
 804b192:	8b 45 f8             	mov    -0x8(%ebp),%eax
 804b195:	8d 50 01             	lea    0x1(%eax),%edx
 804b198:	8b 45 fc             	mov    -0x4(%ebp),%eax
 804b19b:	0f af c2             	imul   %edx,%eax
 804b19e:	89 45 fc             	mov    %eax,-0x4(%ebp)
 804b1a1:	83 45 f8 01          	addl   $0x1,-0x8(%ebp)
 804b1a5:	83 7d f8 09          	cmpl   $0x9,-0x8(%ebp)
 804b1a9:	7e e7                	jle    804b192 <padding+0x26d7>
 804b1ab:	c7 45 f8 00 00 00 00 	movl   $0x0,-0x8(%ebp)
 804b1b2:	eb 13                	jmp    804b1c7 <padding+0x270c>
 804b1b4:	8b 45 f8             	mov    -0x8(%ebp),%eax
 804b1b7:	8d 50 01             	lea    0x1(%eax),%edx
 804b1ba:	8b 45 fc             	mov    -0x4(%ebp),%eax
 804b1bd:	0f af c2             	imul   %edx,%eax
 804b1c0:	89 45 fc             	mov    %eax,-0x4(%ebp)
 804b1c3:	83 45 f8 01          	addl   $0x1,-0x8(%ebp)
 804b1c7:	83 7d f8 09          	cmpl   $0x9,-0x8(%ebp)
 804b1cb:	7e e7                	jle    804b1b4 <padding+0x26f9>
 804b1cd:	c7 45 f8 00 00 00 00 	movl   $0x0,-0x8(%ebp)
 804b1d4:	eb 13                	jmp    804b1e9 <padding+0x272e>
 804b1d6:	8b 45 f8             	mov    -0x8(%ebp),%eax
 804b1d9:	8d 50 01             	lea    0x1(%eax),%edx
 804b1dc:	8b 45 fc             	mov    -0x4(%ebp),%eax
 804b1df:	0f af c2             	imul   %edx,%eax
 804b1e2:	89 45 fc             	mov    %eax,-0x4(%ebp)
 804b1e5:	83 45 f8 01          	addl   $0x1,-0x8(%ebp)
 804b1e9:	83 7d f8 09          	cmpl   $0x9,-0x8(%ebp)
 804b1ed:	7e e7                	jle    804b1d6 <padding+0x271b>
 804b1ef:	c7 45 f8 00 00 00 00 	movl   $0x0,-0x8(%ebp)
 804b1f6:	eb 13                	jmp    804b20b <padding+0x2750>
 804b1f8:	8b 45 f8             	mov    -0x8(%ebp),%eax
 804b1fb:	8d 50 01             	lea    0x1(%eax),%edx
 804b1fe:	8b 45 fc             	mov    -0x4(%ebp),%eax
 804b201:	0f af c2             	imul   %edx,%eax
 804b204:	89 45 fc             	mov    %eax,-0x4(%ebp)
 804b207:	83 45 f8 01          	addl   $0x1,-0x8(%ebp)
 804b20b:	83 7d f8 09          	cmpl   $0x9,-0x8(%ebp)
 804b20f:	7e e7                	jle    804b1f8 <padding+0x273d>
 804b211:	90                   	nop
 804b212:	c9                   	leave  
 804b213:	c3                   	ret    

0804b214 <ownme>:
 804b214:	55                   	push   %ebp
 804b215:	89 e5                	mov    %esp,%ebp
 804b217:	83 ec 08             	sub    $0x8,%esp
 804b21a:	a1 60 e0 04 08       	mov    0x804e060,%eax
 804b21f:	50                   	push   %eax
 804b220:	6a 0d                	push   $0xd
 804b222:	6a 01                	push   $0x1
 804b224:	68 3a ba 04 08       	push   $0x804ba3a
 804b229:	e8 d2 d3 ff ff       	call   8048600 <fwrite@plt>
 804b22e:	83 c4 10             	add    $0x10,%esp
 804b231:	90                   	nop
 804b232:	c9                   	leave  
 804b233:	c3                   	ret    

0804b234 <main_loop>:
 804b234:	55                   	push   %ebp
 804b235:	89 e5                	mov    %esp,%ebp
 804b237:	83 ec 38             	sub    $0x38,%esp
 804b23a:	65 a1 14 00 00 00    	mov    %gs:0x14,%eax
 804b240:	89 45 f4             	mov    %eax,-0xc(%ebp)
 804b243:	31 c0                	xor    %eax,%eax
 804b245:	c7 45 d0 00 00 00 00 	movl   $0x0,-0x30(%ebp)
 804b24c:	c7 45 d4 00 00 00 00 	movl   $0x0,-0x2c(%ebp)
 804b253:	c7 45 d8 00 00 00 00 	movl   $0x0,-0x28(%ebp)
 804b25a:	c7 45 dc 00 00 00 00 	movl   $0x0,-0x24(%ebp)
 804b261:	83 ec 0c             	sub    $0xc,%esp
 804b264:	ff 75 08             	pushl  0x8(%ebp)
 804b267:	e8 44 d3 ff ff       	call   80485b0 <srandom@plt>
 804b26c:	83 c4 10             	add    $0x10,%esp
 804b26f:	e8 2c d4 ff ff       	call   80486a0 <random@plt>
 804b274:	89 45 e0             	mov    %eax,-0x20(%ebp)
 804b277:	8b 4d e0             	mov    -0x20(%ebp),%ecx
 804b27a:	ba 6d 90 c0 00       	mov    $0xc0906d,%edx
 804b27f:	89 c8                	mov    %ecx,%eax
 804b281:	f7 e2                	mul    %edx
 804b283:	89 c8                	mov    %ecx,%eax
 804b285:	29 d0                	sub    %edx,%eax
 804b287:	d1 e8                	shr    %eax
 804b289:	01 d0                	add    %edx,%eax
 804b28b:	c1 e8 09             	shr    $0x9,%eax
 804b28e:	69 c0 fd 03 00 00    	imul   $0x3fd,%eax,%eax
 804b294:	29 c1                	sub    %eax,%ecx
 804b296:	89 c8                	mov    %ecx,%eax
 804b298:	05 fd 03 00 00       	add    $0x3fd,%eax
 804b29d:	89 45 e0             	mov    %eax,-0x20(%ebp)
 804b2a0:	8b 45 e0             	mov    -0x20(%ebp),%eax
 804b2a3:	8d 50 0f             	lea    0xf(%eax),%edx
 804b2a6:	b8 10 00 00 00       	mov    $0x10,%eax
 804b2ab:	83 e8 01             	sub    $0x1,%eax
 804b2ae:	01 d0                	add    %edx,%eax
 804b2b0:	b9 10 00 00 00       	mov    $0x10,%ecx
 804b2b5:	ba 00 00 00 00       	mov    $0x0,%edx
 804b2ba:	f7 f1                	div    %ecx
 804b2bc:	6b c0 10             	imul   $0x10,%eax,%eax
 804b2bf:	29 c4                	sub    %eax,%esp
 804b2c1:	89 e0                	mov    %esp,%eax
 804b2c3:	83 c0 0f             	add    $0xf,%eax
 804b2c6:	c1 e8 04             	shr    $0x4,%eax
 804b2c9:	c1 e0 04             	shl    $0x4,%eax
 804b2cc:	89 45 e4             	mov    %eax,-0x1c(%ebp)
 804b2cf:	e8 cc d3 ff ff       	call   80486a0 <random@plt>
 804b2d4:	89 c1                	mov    %eax,%ecx
 804b2d6:	ba 6d 90 c0 00       	mov    $0xc0906d,%edx
 804b2db:	89 c8                	mov    %ecx,%eax
 804b2dd:	f7 e2                	mul    %edx
 804b2df:	89 c8                	mov    %ecx,%eax
 804b2e1:	29 d0                	sub    %edx,%eax
 804b2e3:	d1 e8                	shr    %eax
 804b2e5:	01 d0                	add    %edx,%eax
 804b2e7:	c1 e8 09             	shr    $0x9,%eax
 804b2ea:	89 45 e8             	mov    %eax,-0x18(%ebp)
 804b2ed:	8b 45 e8             	mov    -0x18(%ebp),%eax
 804b2f0:	69 c0 fd 03 00 00    	imul   $0x3fd,%eax,%eax
 804b2f6:	29 c1                	sub    %eax,%ecx
 804b2f8:	89 c8                	mov    %ecx,%eax
 804b2fa:	89 45 e8             	mov    %eax,-0x18(%ebp)
 804b2fd:	8b 45 e8             	mov    -0x18(%ebp),%eax
 804b300:	8d 50 0f             	lea    0xf(%eax),%edx
 804b303:	b8 10 00 00 00       	mov    $0x10,%eax
 804b308:	83 e8 01             	sub    $0x1,%eax
 804b30b:	01 d0                	add    %edx,%eax
 804b30d:	b9 10 00 00 00       	mov    $0x10,%ecx
 804b312:	ba 00 00 00 00       	mov    $0x0,%edx
 804b317:	f7 f1                	div    %ecx
 804b319:	6b c0 10             	imul   $0x10,%eax,%eax
 804b31c:	29 c4                	sub    %eax,%esp
 804b31e:	89 e0                	mov    %esp,%eax
 804b320:	83 c0 0f             	add    $0xf,%eax
 804b323:	c1 e8 04             	shr    $0x4,%eax
 804b326:	c1 e0 04             	shl    $0x4,%eax
 804b329:	89 45 ec             	mov    %eax,-0x14(%ebp)
 804b32c:	8b 45 e0             	mov    -0x20(%ebp),%eax
 804b32f:	83 e8 01             	sub    $0x1,%eax
 804b332:	83 ec 04             	sub    $0x4,%esp
 804b335:	50                   	push   %eax
 804b336:	ff 75 e4             	pushl  -0x1c(%ebp)
 804b339:	6a 00                	push   $0x0
 804b33b:	e8 60 d2 ff ff       	call   80485a0 <read@plt>
 804b340:	83 c4 10             	add    $0x10,%esp
 804b343:	89 45 f0             	mov    %eax,-0x10(%ebp)
 804b346:	83 7d f0 00          	cmpl   $0x0,-0x10(%ebp)
 804b34a:	79 34                	jns    804b380 <main_loop+0x14c>
 804b34c:	a1 60 e0 04 08       	mov    0x804e060,%eax
 804b351:	6a 62                	push   $0x62
 804b353:	68 e7 b9 04 08       	push   $0x804b9e7
 804b358:	68 ee b9 04 08       	push   $0x804b9ee
 804b35d:	50                   	push   %eax
 804b35e:	e8 ed d2 ff ff       	call   8048650 <fprintf@plt>
 804b363:	83 c4 10             	add    $0x10,%esp
 804b366:	83 ec 0c             	sub    $0xc,%esp
 804b369:	68 03 ba 04 08       	push   $0x804ba03
 804b36e:	e8 7d d2 ff ff       	call   80485f0 <perror@plt>
 804b373:	83 c4 10             	add    $0x10,%esp
 804b376:	83 ec 0c             	sub    $0xc,%esp
 804b379:	6a 01                	push   $0x1
 804b37b:	e8 a0 d2 ff ff       	call   8048620 <exit@plt>
 804b380:	83 7d f0 00          	cmpl   $0x0,-0x10(%ebp)
 804b384:	75 21                	jne    804b3a7 <main_loop+0x173>
 804b386:	a1 60 e0 04 08       	mov    0x804e060,%eax
 804b38b:	50                   	push   %eax
 804b38c:	6a 0f                	push   $0xf
 804b38e:	6a 01                	push   $0x1
 804b390:	68 48 ba 04 08       	push   $0x804ba48
 804b395:	e8 66 d2 ff ff       	call   8048600 <fwrite@plt>
 804b39a:	83 c4 10             	add    $0x10,%esp
 804b39d:	b8 00 00 00 00       	mov    $0x0,%eax
 804b3a2:	e9 49 02 00 00       	jmp    804b5f0 <main_loop+0x3bc>
 804b3a7:	a1 60 e0 04 08       	mov    0x804e060,%eax
 804b3ac:	50                   	push   %eax
 804b3ad:	6a 10                	push   $0x10
 804b3af:	6a 01                	push   $0x1
 804b3b1:	68 58 ba 04 08       	push   $0x804ba58
 804b3b6:	e8 45 d2 ff ff       	call   8048600 <fwrite@plt>
 804b3bb:	83 c4 10             	add    $0x10,%esp
 804b3be:	8b 55 f0             	mov    -0x10(%ebp),%edx
 804b3c1:	a1 60 e0 04 08       	mov    0x804e060,%eax
 804b3c6:	83 ec 04             	sub    $0x4,%esp
 804b3c9:	52                   	push   %edx
 804b3ca:	ff 75 e4             	pushl  -0x1c(%ebp)
 804b3cd:	50                   	push   %eax
 804b3ce:	e8 08 d4 ff ff       	call   80487db <print_escaped>
 804b3d3:	83 c4 10             	add    $0x10,%esp
 804b3d6:	a1 60 e0 04 08       	mov    0x804e060,%eax
 804b3db:	50                   	push   %eax
 804b3dc:	6a 02                	push   $0x2
 804b3de:	6a 01                	push   $0x1
 804b3e0:	68 69 ba 04 08       	push   $0x804ba69
 804b3e5:	e8 16 d2 ff ff       	call   8048600 <fwrite@plt>
 804b3ea:	83 c4 10             	add    $0x10,%esp
 804b3ed:	8b 55 f0             	mov    -0x10(%ebp),%edx
 804b3f0:	8b 45 e4             	mov    -0x1c(%ebp),%eax
 804b3f3:	01 d0                	add    %edx,%eax
 804b3f5:	c6 00 00             	movb   $0x0,(%eax)
 804b3f8:	8b 45 e4             	mov    -0x1c(%ebp),%eax
 804b3fb:	0f b6 00             	movzbl (%eax),%eax
 804b3fe:	0f be c0             	movsbl %al,%eax
 804b401:	83 e8 65             	sub    $0x65,%eax
 804b404:	83 f8 10             	cmp    $0x10,%eax
 804b407:	0f 87 53 01 00 00    	ja     804b560 <main_loop+0x32c>
 804b40d:	8b 04 85 78 bb 04 08 	mov    0x804bb78(,%eax,4),%eax
 804b414:	ff e0                	jmp    *%eax
 804b416:	8b 45 e4             	mov    -0x1c(%ebp),%eax
 804b419:	83 c0 02             	add    $0x2,%eax
 804b41c:	83 ec 0c             	sub    $0xc,%esp
 804b41f:	50                   	push   %eax
 804b420:	e8 9b d1 ff ff       	call   80485c0 <printf@plt>
 804b425:	83 c4 10             	add    $0x10,%esp
 804b428:	a1 64 e0 04 08       	mov    0x804e064,%eax
 804b42d:	83 ec 0c             	sub    $0xc,%esp
 804b430:	50                   	push   %eax
 804b431:	e8 9a d1 ff ff       	call   80485d0 <fflush@plt>
 804b436:	83 c4 10             	add    $0x10,%esp
 804b439:	e9 ad 01 00 00       	jmp    804b5eb <main_loop+0x3b7>
 804b43e:	8b 45 f0             	mov    -0x10(%ebp),%eax
 804b441:	83 e8 03             	sub    $0x3,%eax
 804b444:	89 45 d8             	mov    %eax,-0x28(%ebp)
 804b447:	83 ec 0c             	sub    $0xc,%esp
 804b44a:	ff 75 d8             	pushl  -0x28(%ebp)
 804b44d:	e8 f5 02 00 00       	call   804b747 <my_malloc>
 804b452:	83 c4 10             	add    $0x10,%esp
 804b455:	89 45 d0             	mov    %eax,-0x30(%ebp)
 804b458:	8b 45 e4             	mov    -0x1c(%ebp),%eax
 804b45b:	83 c0 02             	add    $0x2,%eax
 804b45e:	83 ec 04             	sub    $0x4,%esp
 804b461:	ff 75 d8             	pushl  -0x28(%ebp)
 804b464:	ff 75 d0             	pushl  -0x30(%ebp)
 804b467:	50                   	push   %eax
 804b468:	e8 a3 d1 ff ff       	call   8048610 <bcopy@plt>
 804b46d:	83 c4 10             	add    $0x10,%esp
 804b470:	e9 76 01 00 00       	jmp    804b5eb <main_loop+0x3b7>
 804b475:	83 ec 0c             	sub    $0xc,%esp
 804b478:	ff 75 dc             	pushl  -0x24(%ebp)
 804b47b:	e8 c7 02 00 00       	call   804b747 <my_malloc>
 804b480:	83 c4 10             	add    $0x10,%esp
 804b483:	89 45 d4             	mov    %eax,-0x2c(%ebp)
 804b486:	8b 45 f0             	mov    -0x10(%ebp),%eax
 804b489:	83 e8 03             	sub    $0x3,%eax
 804b48c:	89 45 dc             	mov    %eax,-0x24(%ebp)
 804b48f:	8b 45 e4             	mov    -0x1c(%ebp),%eax
 804b492:	83 c0 02             	add    $0x2,%eax
 804b495:	83 ec 04             	sub    $0x4,%esp
 804b498:	ff 75 dc             	pushl  -0x24(%ebp)
 804b49b:	ff 75 d4             	pushl  -0x2c(%ebp)
 804b49e:	50                   	push   %eax
 804b49f:	e8 6c d1 ff ff       	call   8048610 <bcopy@plt>
 804b4a4:	83 c4 10             	add    $0x10,%esp
 804b4a7:	e9 3f 01 00 00       	jmp    804b5eb <main_loop+0x3b7>
 804b4ac:	83 7d d0 00          	cmpl   $0x0,-0x30(%ebp)
 804b4b0:	74 71                	je     804b523 <main_loop+0x2ef>
 804b4b2:	83 7d d4 00          	cmpl   $0x0,-0x2c(%ebp)
 804b4b6:	74 6b                	je     804b523 <main_loop+0x2ef>
 804b4b8:	a1 60 e0 04 08       	mov    0x804e060,%eax
 804b4bd:	ff 75 d4             	pushl  -0x2c(%ebp)
 804b4c0:	ff 75 d0             	pushl  -0x30(%ebp)
 804b4c3:	68 6c ba 04 08       	push   $0x804ba6c
 804b4c8:	50                   	push   %eax
 804b4c9:	e8 82 d1 ff ff       	call   8048650 <fprintf@plt>
 804b4ce:	83 c4 10             	add    $0x10,%esp
 804b4d1:	8b 55 dc             	mov    -0x24(%ebp),%edx
 804b4d4:	8b 45 d8             	mov    -0x28(%ebp),%eax
 804b4d7:	52                   	push   %edx
 804b4d8:	ff 75 d4             	pushl  -0x2c(%ebp)
 804b4db:	50                   	push   %eax
 804b4dc:	ff 75 d0             	pushl  -0x30(%ebp)
 804b4df:	e8 8f d4 ff ff       	call   8048973 <g>
 804b4e4:	83 c4 10             	add    $0x10,%esp
 804b4e7:	83 ec 0c             	sub    $0xc,%esp
 804b4ea:	ff 75 d4             	pushl  -0x2c(%ebp)
 804b4ed:	e8 be 02 00 00       	call   804b7b0 <my_free>
 804b4f2:	83 c4 10             	add    $0x10,%esp
 804b4f5:	83 ec 0c             	sub    $0xc,%esp
 804b4f8:	ff 75 d0             	pushl  -0x30(%ebp)
 804b4fb:	e8 b0 02 00 00       	call   804b7b0 <my_free>
 804b500:	83 c4 10             	add    $0x10,%esp
 804b503:	c7 45 d4 00 00 00 00 	movl   $0x0,-0x2c(%ebp)
 804b50a:	8b 45 d4             	mov    -0x2c(%ebp),%eax
 804b50d:	89 45 d0             	mov    %eax,-0x30(%ebp)
 804b510:	c7 45 d8 00 00 00 00 	movl   $0x0,-0x28(%ebp)
 804b517:	c7 45 dc 00 00 00 00 	movl   $0x0,-0x24(%ebp)
 804b51e:	e9 c8 00 00 00       	jmp    804b5eb <main_loop+0x3b7>
 804b523:	a1 60 e0 04 08       	mov    0x804e060,%eax
 804b528:	50                   	push   %eax
 804b529:	6a 2d                	push   $0x2d
 804b52b:	6a 01                	push   $0x1
 804b52d:	68 88 ba 04 08       	push   $0x804ba88
 804b532:	e8 c9 d0 ff ff       	call   8048600 <fwrite@plt>
 804b537:	83 c4 10             	add    $0x10,%esp
 804b53a:	e9 ac 00 00 00       	jmp    804b5eb <main_loop+0x3b7>
 804b53f:	a1 60 e0 04 08       	mov    0x804e060,%eax
 804b544:	50                   	push   %eax
 804b545:	6a 0f                	push   $0xf
 804b547:	6a 01                	push   $0x1
 804b549:	68 48 ba 04 08       	push   $0x804ba48
 804b54e:	e8 ad d0 ff ff       	call   8048600 <fwrite@plt>
 804b553:	83 c4 10             	add    $0x10,%esp
 804b556:	b8 00 00 00 00       	mov    $0x0,%eax
 804b55b:	e9 90 00 00 00       	jmp    804b5f0 <main_loop+0x3bc>
 804b560:	a1 60 e0 04 08       	mov    0x804e060,%eax
 804b565:	50                   	push   %eax
 804b566:	6a 2d                	push   $0x2d
 804b568:	6a 01                	push   $0x1
 804b56a:	68 b8 ba 04 08       	push   $0x804bab8
 804b56f:	e8 8c d0 ff ff       	call   8048600 <fwrite@plt>
 804b574:	83 c4 10             	add    $0x10,%esp
 804b577:	a1 60 e0 04 08       	mov    0x804e060,%eax
 804b57c:	50                   	push   %eax
 804b57d:	6a 17                	push   $0x17
 804b57f:	6a 01                	push   $0x1
 804b581:	68 e6 ba 04 08       	push   $0x804bae6
 804b586:	e8 75 d0 ff ff       	call   8048600 <fwrite@plt>
 804b58b:	83 c4 10             	add    $0x10,%esp
 804b58e:	a1 60 e0 04 08       	mov    0x804e060,%eax
 804b593:	50                   	push   %eax
 804b594:	6a 1a                	push   $0x1a
 804b596:	6a 01                	push   $0x1
 804b598:	68 fe ba 04 08       	push   $0x804bafe
 804b59d:	e8 5e d0 ff ff       	call   8048600 <fwrite@plt>
 804b5a2:	83 c4 10             	add    $0x10,%esp
 804b5a5:	a1 60 e0 04 08       	mov    0x804e060,%eax
 804b5aa:	50                   	push   %eax
 804b5ab:	6a 1a                	push   $0x1a
 804b5ad:	6a 01                	push   $0x1
 804b5af:	68 19 bb 04 08       	push   $0x804bb19
 804b5b4:	e8 47 d0 ff ff       	call   8048600 <fwrite@plt>
 804b5b9:	83 c4 10             	add    $0x10,%esp
 804b5bc:	a1 60 e0 04 08       	mov    0x804e060,%eax
 804b5c1:	50                   	push   %eax
 804b5c2:	6a 36                	push   $0x36
 804b5c4:	6a 01                	push   $0x1
 804b5c6:	68 34 bb 04 08       	push   $0x804bb34
 804b5cb:	e8 30 d0 ff ff       	call   8048600 <fwrite@plt>
 804b5d0:	83 c4 10             	add    $0x10,%esp
 804b5d3:	a1 60 e0 04 08       	mov    0x804e060,%eax
 804b5d8:	50                   	push   %eax
 804b5d9:	6a 09                	push   $0x9
 804b5db:	6a 01                	push   $0x1
 804b5dd:	68 6b bb 04 08       	push   $0x804bb6b
 804b5e2:	e8 19 d0 ff ff       	call   8048600 <fwrite@plt>
 804b5e7:	83 c4 10             	add    $0x10,%esp
 804b5ea:	90                   	nop
 804b5eb:	e9 3c fd ff ff       	jmp    804b32c <main_loop+0xf8>
 804b5f0:	8b 4d f4             	mov    -0xc(%ebp),%ecx
 804b5f3:	65 33 0d 14 00 00 00 	xor    %gs:0x14,%ecx
 804b5fa:	74 05                	je     804b601 <main_loop+0x3cd>
 804b5fc:	e8 df cf ff ff       	call   80485e0 <__stack_chk_fail@plt>
 804b601:	c9                   	leave  
 804b602:	c3                   	ret    

0804b603 <main>:
 804b603:	8d 4c 24 04          	lea    0x4(%esp),%ecx
 804b607:	83 e4 f0             	and    $0xfffffff0,%esp
 804b60a:	ff 71 fc             	pushl  -0x4(%ecx)
 804b60d:	55                   	push   %ebp
 804b60e:	89 e5                	mov    %esp,%ebp
 804b610:	53                   	push   %ebx
 804b611:	51                   	push   %ecx
 804b612:	83 ec 10             	sub    $0x10,%esp
 804b615:	89 cb                	mov    %ecx,%ebx
 804b617:	c7 45 f4 03 00 00 00 	movl   $0x3,-0xc(%ebp)
 804b61e:	83 3b 01             	cmpl   $0x1,(%ebx)
 804b621:	7e 17                	jle    804b63a <main+0x37>
 804b623:	8b 43 04             	mov    0x4(%ebx),%eax
 804b626:	83 c0 04             	add    $0x4,%eax
 804b629:	8b 00                	mov    (%eax),%eax
 804b62b:	83 ec 0c             	sub    $0xc,%esp
 804b62e:	50                   	push   %eax
 804b62f:	e8 4c d0 ff ff       	call   8048680 <atoi@plt>
 804b634:	83 c4 10             	add    $0x10,%esp
 804b637:	89 45 f4             	mov    %eax,-0xc(%ebp)
 804b63a:	83 7d f4 64          	cmpl   $0x64,-0xc(%ebp)
 804b63e:	76 3e                	jbe    804b67e <main+0x7b>
 804b640:	8b 43 04             	mov    0x4(%ebx),%eax
 804b643:	8b 10                	mov    (%eax),%edx
 804b645:	a1 60 e0 04 08       	mov    0x804e060,%eax
 804b64a:	83 ec 04             	sub    $0x4,%esp
 804b64d:	52                   	push   %edx
 804b64e:	68 bc bb 04 08       	push   $0x804bbbc
 804b653:	50                   	push   %eax
 804b654:	e8 f7 cf ff ff       	call   8048650 <fprintf@plt>
 804b659:	83 c4 10             	add    $0x10,%esp
 804b65c:	a1 60 e0 04 08       	mov    0x804e060,%eax
 804b661:	83 ec 04             	sub    $0x4,%esp
 804b664:	6a 64                	push   $0x64
 804b666:	68 d4 bb 04 08       	push   $0x804bbd4
 804b66b:	50                   	push   %eax
 804b66c:	e8 df cf ff ff       	call   8048650 <fprintf@plt>
 804b671:	83 c4 10             	add    $0x10,%esp
 804b674:	83 ec 0c             	sub    $0xc,%esp
 804b677:	6a 01                	push   $0x1
 804b679:	e8 a2 cf ff ff       	call   8048620 <exit@plt>
 804b67e:	83 ec 0c             	sub    $0xc,%esp
 804b681:	ff 75 f4             	pushl  -0xc(%ebp)
 804b684:	e8 ab fb ff ff       	call   804b234 <main_loop>
 804b689:	83 c4 10             	add    $0x10,%esp
 804b68c:	8d 65 f8             	lea    -0x8(%ebp),%esp
 804b68f:	59                   	pop    %ecx
 804b690:	5b                   	pop    %ebx
 804b691:	5d                   	pop    %ebp
 804b692:	8d 61 fc             	lea    -0x4(%ecx),%esp
 804b695:	c3                   	ret    

0804b696 <heap_delete>:
 804b696:	55                   	push   %ebp
 804b697:	89 e5                	mov    %esp,%ebp
 804b699:	8b 45 08             	mov    0x8(%ebp),%eax
 804b69c:	8b 40 10             	mov    0x10(%eax),%eax
 804b69f:	85 c0                	test   %eax,%eax
 804b6a1:	74 0f                	je     804b6b2 <heap_delete+0x1c>
 804b6a3:	8b 45 08             	mov    0x8(%ebp),%eax
 804b6a6:	8b 40 10             	mov    0x10(%eax),%eax
 804b6a9:	8b 55 08             	mov    0x8(%ebp),%edx
 804b6ac:	8b 52 0c             	mov    0xc(%edx),%edx
 804b6af:	89 50 0c             	mov    %edx,0xc(%eax)
 804b6b2:	8b 45 08             	mov    0x8(%ebp),%eax
 804b6b5:	8b 40 0c             	mov    0xc(%eax),%eax
 804b6b8:	85 c0                	test   %eax,%eax
 804b6ba:	74 0f                	je     804b6cb <heap_delete+0x35>
 804b6bc:	8b 45 08             	mov    0x8(%ebp),%eax
 804b6bf:	8b 40 0c             	mov    0xc(%eax),%eax
 804b6c2:	8b 55 08             	mov    0x8(%ebp),%edx
 804b6c5:	8b 52 10             	mov    0x10(%edx),%edx
 804b6c8:	89 50 10             	mov    %edx,0x10(%eax)
 804b6cb:	a1 74 e0 04 08       	mov    0x804e074,%eax
 804b6d0:	3b 45 08             	cmp    0x8(%ebp),%eax
 804b6d3:	75 0b                	jne    804b6e0 <heap_delete+0x4a>
 804b6d5:	8b 45 08             	mov    0x8(%ebp),%eax
 804b6d8:	8b 40 10             	mov    0x10(%eax),%eax
 804b6db:	a3 74 e0 04 08       	mov    %eax,0x804e074
 804b6e0:	90                   	nop
 804b6e1:	5d                   	pop    %ebp
 804b6e2:	c3                   	ret    

0804b6e3 <heap_insert>:
 804b6e3:	55                   	push   %ebp
 804b6e4:	89 e5                	mov    %esp,%ebp
 804b6e6:	8b 45 08             	mov    0x8(%ebp),%eax
 804b6e9:	c7 00 00 00 00 00    	movl   $0x0,(%eax)
 804b6ef:	8b 45 08             	mov    0x8(%ebp),%eax
 804b6f2:	c7 40 0c 00 00 00 00 	movl   $0x0,0xc(%eax)
 804b6f9:	8b 15 74 e0 04 08    	mov    0x804e074,%edx
 804b6ff:	8b 45 08             	mov    0x8(%ebp),%eax
 804b702:	89 50 10             	mov    %edx,0x10(%eax)
 804b705:	a1 74 e0 04 08       	mov    0x804e074,%eax
 804b70a:	85 c0                	test   %eax,%eax
 804b70c:	74 0b                	je     804b719 <heap_insert+0x36>
 804b70e:	a1 74 e0 04 08       	mov    0x804e074,%eax
 804b713:	8b 55 08             	mov    0x8(%ebp),%edx
 804b716:	89 50 0c             	mov    %edx,0xc(%eax)
 804b719:	8b 45 08             	mov    0x8(%ebp),%eax
 804b71c:	a3 74 e0 04 08       	mov    %eax,0x804e074
 804b721:	90                   	nop
 804b722:	5d                   	pop    %ebp
 804b723:	c3                   	ret    

0804b724 <new_heap_block>:
 804b724:	55                   	push   %ebp
 804b725:	89 e5                	mov    %esp,%ebp
 804b727:	8b 55 0c             	mov    0xc(%ebp),%edx
 804b72a:	8b 45 08             	mov    0x8(%ebp),%eax
 804b72d:	89 50 04             	mov    %edx,0x4(%eax)
 804b730:	8b 55 10             	mov    0x10(%ebp),%edx
 804b733:	8b 45 08             	mov    0x8(%ebp),%eax
 804b736:	89 50 08             	mov    %edx,0x8(%eax)
 804b739:	ff 75 08             	pushl  0x8(%ebp)
 804b73c:	e8 a2 ff ff ff       	call   804b6e3 <heap_insert>
 804b741:	83 c4 04             	add    $0x4,%esp
 804b744:	90                   	nop
 804b745:	c9                   	leave  
 804b746:	c3                   	ret    

0804b747 <my_malloc>:
 804b747:	55                   	push   %ebp
 804b748:	89 e5                	mov    %esp,%ebp
 804b74a:	83 ec 18             	sub    $0x18,%esp
 804b74d:	a1 74 e0 04 08       	mov    0x804e074,%eax
 804b752:	89 45 f4             	mov    %eax,-0xc(%ebp)
 804b755:	eb 09                	jmp    804b760 <my_malloc+0x19>
 804b757:	8b 45 f4             	mov    -0xc(%ebp),%eax
 804b75a:	8b 40 10             	mov    0x10(%eax),%eax
 804b75d:	89 45 f4             	mov    %eax,-0xc(%ebp)
 804b760:	83 7d f4 00          	cmpl   $0x0,-0xc(%ebp)
 804b764:	74 0b                	je     804b771 <my_malloc+0x2a>
 804b766:	8b 45 f4             	mov    -0xc(%ebp),%eax
 804b769:	8b 40 04             	mov    0x4(%eax),%eax
 804b76c:	3b 45 08             	cmp    0x8(%ebp),%eax
 804b76f:	72 e6                	jb     804b757 <my_malloc+0x10>
 804b771:	83 7d f4 00          	cmpl   $0x0,-0xc(%ebp)
 804b775:	75 1a                	jne    804b791 <my_malloc+0x4a>
 804b777:	83 ec 08             	sub    $0x8,%esp
 804b77a:	6a 00                	push   $0x0
 804b77c:	6a ff                	push   $0xffffffff
 804b77e:	6a 22                	push   $0x22
 804b780:	6a 07                	push   $0x7
 804b782:	ff 75 08             	pushl  0x8(%ebp)
 804b785:	6a 00                	push   $0x0
 804b787:	e8 a4 ce ff ff       	call   8048630 <mmap@plt>
 804b78c:	83 c4 20             	add    $0x20,%esp
 804b78f:	eb 1d                	jmp    804b7ae <my_malloc+0x67>
 804b791:	83 ec 0c             	sub    $0xc,%esp
 804b794:	ff 75 f4             	pushl  -0xc(%ebp)
 804b797:	e8 fa fe ff ff       	call   804b696 <heap_delete>
 804b79c:	83 c4 10             	add    $0x10,%esp
 804b79f:	8b 45 f4             	mov    -0xc(%ebp),%eax
 804b7a2:	c7 00 01 00 00 00    	movl   $0x1,(%eax)
 804b7a8:	8b 45 f4             	mov    -0xc(%ebp),%eax
 804b7ab:	83 c0 0c             	add    $0xc,%eax
 804b7ae:	c9                   	leave  
 804b7af:	c3                   	ret    

0804b7b0 <my_free>:
 804b7b0:	55                   	push   %ebp
 804b7b1:	89 e5                	mov    %esp,%ebp
 804b7b3:	83 ec 10             	sub    $0x10,%esp
 804b7b6:	b8 0c 00 00 00       	mov    $0xc,%eax
 804b7bb:	f7 d8                	neg    %eax
 804b7bd:	89 c2                	mov    %eax,%edx
 804b7bf:	8b 45 08             	mov    0x8(%ebp),%eax
 804b7c2:	01 d0                	add    %edx,%eax
 804b7c4:	89 45 f8             	mov    %eax,-0x8(%ebp)
 804b7c7:	8b 45 f8             	mov    -0x8(%ebp),%eax
 804b7ca:	8b 50 04             	mov    0x4(%eax),%edx
 804b7cd:	8b 45 08             	mov    0x8(%ebp),%eax
 804b7d0:	01 d0                	add    %edx,%eax
 804b7d2:	89 45 fc             	mov    %eax,-0x4(%ebp)
 804b7d5:	a1 70 e0 04 08       	mov    0x804e070,%eax
 804b7da:	39 45 fc             	cmp    %eax,-0x4(%ebp)
 804b7dd:	73 2f                	jae    804b80e <my_free+0x5e>
 804b7df:	8b 45 fc             	mov    -0x4(%ebp),%eax
 804b7e2:	8b 00                	mov    (%eax),%eax
 804b7e4:	85 c0                	test   %eax,%eax
 804b7e6:	75 26                	jne    804b80e <my_free+0x5e>
 804b7e8:	8b 45 f8             	mov    -0x8(%ebp),%eax
 804b7eb:	8b 50 04             	mov    0x4(%eax),%edx
 804b7ee:	8b 45 fc             	mov    -0x4(%ebp),%eax
 804b7f1:	8b 40 04             	mov    0x4(%eax),%eax
 804b7f4:	b9 14 00 00 00       	mov    $0x14,%ecx
 804b7f9:	01 c8                	add    %ecx,%eax
 804b7fb:	01 c2                	add    %eax,%edx
 804b7fd:	8b 45 f8             	mov    -0x8(%ebp),%eax
 804b800:	89 50 04             	mov    %edx,0x4(%eax)
 804b803:	ff 75 fc             	pushl  -0x4(%ebp)
 804b806:	e8 8b fe ff ff       	call   804b696 <heap_delete>
 804b80b:	83 c4 04             	add    $0x4,%esp
 804b80e:	ff 75 f8             	pushl  -0x8(%ebp)
 804b811:	e8 cd fe ff ff       	call   804b6e3 <heap_insert>
 804b816:	83 c4 04             	add    $0x4,%esp
 804b819:	90                   	nop
 804b81a:	c9                   	leave  
 804b81b:	c3                   	ret    

0804b81c <init_heap>:
 804b81c:	55                   	push   %ebp
 804b81d:	89 e5                	mov    %esp,%ebp
 804b81f:	83 ec 18             	sub    $0x18,%esp
 804b822:	b8 14 00 00 00       	mov    $0x14,%eax
 804b827:	83 c0 08             	add    $0x8,%eax
 804b82a:	3b 45 08             	cmp    0x8(%ebp),%eax
 804b82d:	7e 0b                	jle    804b83a <init_heap+0x1e>
 804b82f:	b8 14 00 00 00       	mov    $0x14,%eax
 804b834:	83 c0 08             	add    $0x8,%eax
 804b837:	89 45 08             	mov    %eax,0x8(%ebp)
 804b83a:	8b 45 08             	mov    0x8(%ebp),%eax
 804b83d:	83 c0 07             	add    $0x7,%eax
 804b840:	83 e0 f8             	and    $0xfffffff8,%eax
 804b843:	89 45 08             	mov    %eax,0x8(%ebp)
 804b846:	8b 45 08             	mov    0x8(%ebp),%eax
 804b849:	0f af 45 0c          	imul   0xc(%ebp),%eax
 804b84d:	89 45 f0             	mov    %eax,-0x10(%ebp)
 804b850:	8b 45 f0             	mov    -0x10(%ebp),%eax
 804b853:	05 ff 0f 00 00       	add    $0xfff,%eax
 804b858:	25 00 f0 ff ff       	and    $0xfffff000,%eax
 804b85d:	89 45 f0             	mov    %eax,-0x10(%ebp)
 804b860:	83 ec 08             	sub    $0x8,%esp
 804b863:	6a 00                	push   $0x0
 804b865:	6a ff                	push   $0xffffffff
 804b867:	6a 22                	push   $0x22
 804b869:	6a 07                	push   $0x7
 804b86b:	ff 75 f0             	pushl  -0x10(%ebp)
 804b86e:	6a 00                	push   $0x0
 804b870:	e8 bb cd ff ff       	call   8048630 <mmap@plt>
 804b875:	83 c4 20             	add    $0x20,%esp
 804b878:	89 45 e8             	mov    %eax,-0x18(%ebp)
 804b87b:	83 7d e8 00          	cmpl   $0x0,-0x18(%ebp)
 804b87f:	75 16                	jne    804b897 <init_heap+0x7b>
 804b881:	68 1c bc 04 08       	push   $0x804bc1c
 804b886:	6a 61                	push   $0x61
 804b888:	68 04 bc 04 08       	push   $0x804bc04
 804b88d:	68 10 bc 04 08       	push   $0x804bc10
 804b892:	e8 19 ce ff ff       	call   80486b0 <__assert_fail@plt>
 804b897:	8b 55 e8             	mov    -0x18(%ebp),%edx
 804b89a:	8b 45 f0             	mov    -0x10(%ebp),%eax
 804b89d:	01 d0                	add    %edx,%eax
 804b89f:	a3 70 e0 04 08       	mov    %eax,0x804e070
 804b8a4:	8b 4d 0c             	mov    0xc(%ebp),%ecx
 804b8a7:	8b 45 f0             	mov    -0x10(%ebp),%eax
 804b8aa:	ba 00 00 00 00       	mov    $0x0,%edx
 804b8af:	f7 f1                	div    %ecx
 804b8b1:	89 45 f4             	mov    %eax,-0xc(%ebp)
 804b8b4:	c7 45 ec 00 00 00 00 	movl   $0x0,-0x14(%ebp)
 804b8bb:	eb 34                	jmp    804b8f1 <init_heap+0xd5>
 804b8bd:	b8 0c 00 00 00       	mov    $0xc,%eax
 804b8c2:	89 c2                	mov    %eax,%edx
 804b8c4:	8b 45 f4             	mov    -0xc(%ebp),%eax
 804b8c7:	29 d0                	sub    %edx,%eax
 804b8c9:	89 c2                	mov    %eax,%edx
 804b8cb:	b8 0c 00 00 00       	mov    $0xc,%eax
 804b8d0:	89 c1                	mov    %eax,%ecx
 804b8d2:	8b 45 f4             	mov    -0xc(%ebp),%eax
 804b8d5:	29 c8                	sub    %ecx,%eax
 804b8d7:	83 ec 04             	sub    $0x4,%esp
 804b8da:	52                   	push   %edx
 804b8db:	50                   	push   %eax
 804b8dc:	ff 75 e8             	pushl  -0x18(%ebp)
 804b8df:	e8 40 fe ff ff       	call   804b724 <new_heap_block>
 804b8e4:	83 c4 10             	add    $0x10,%esp
 804b8e7:	8b 45 f4             	mov    -0xc(%ebp),%eax
 804b8ea:	01 45 e8             	add    %eax,-0x18(%ebp)
 804b8ed:	83 45 ec 01          	addl   $0x1,-0x14(%ebp)
 804b8f1:	8b 45 ec             	mov    -0x14(%ebp),%eax
 804b8f4:	3b 45 0c             	cmp    0xc(%ebp),%eax
 804b8f7:	7c c4                	jl     804b8bd <init_heap+0xa1>
 804b8f9:	90                   	nop
 804b8fa:	c9                   	leave  
 804b8fb:	c3                   	ret    

0804b8fc <initheap>:
 804b8fc:	55                   	push   %ebp
 804b8fd:	89 e5                	mov    %esp,%ebp
 804b8ff:	83 ec 08             	sub    $0x8,%esp
 804b902:	83 ec 08             	sub    $0x8,%esp
 804b905:	68 00 01 00 00       	push   $0x100
 804b90a:	68 00 01 00 00       	push   $0x100
 804b90f:	e8 08 ff ff ff       	call   804b81c <init_heap>
 804b914:	83 c4 10             	add    $0x10,%esp
 804b917:	90                   	nop
 804b918:	c9                   	leave  
 804b919:	c3                   	ret    
 804b91a:	66 90                	xchg   %ax,%ax
 804b91c:	66 90                	xchg   %ax,%ax
 804b91e:	66 90                	xchg   %ax,%ax

0804b920 <__libc_csu_init>:
 804b920:	55                   	push   %ebp
 804b921:	57                   	push   %edi
 804b922:	56                   	push   %esi
 804b923:	53                   	push   %ebx
 804b924:	e8 e7 cd ff ff       	call   8048710 <__x86.get_pc_thunk.bx>
 804b929:	81 c3 d7 26 00 00    	add    $0x26d7,%ebx
 804b92f:	83 ec 0c             	sub    $0xc,%esp
 804b932:	8b 6c 24 20          	mov    0x20(%esp),%ebp
 804b936:	8d b3 0c ff ff ff    	lea    -0xf4(%ebx),%esi
 804b93c:	e8 1f cc ff ff       	call   8048560 <_init>
 804b941:	8d 83 04 ff ff ff    	lea    -0xfc(%ebx),%eax
 804b947:	29 c6                	sub    %eax,%esi
 804b949:	c1 fe 02             	sar    $0x2,%esi
 804b94c:	85 f6                	test   %esi,%esi
 804b94e:	74 25                	je     804b975 <__libc_csu_init+0x55>
 804b950:	31 ff                	xor    %edi,%edi
 804b952:	8d b6 00 00 00 00    	lea    0x0(%esi),%esi
 804b958:	83 ec 04             	sub    $0x4,%esp
 804b95b:	ff 74 24 2c          	pushl  0x2c(%esp)
 804b95f:	ff 74 24 2c          	pushl  0x2c(%esp)
 804b963:	55                   	push   %ebp
 804b964:	ff 94 bb 04 ff ff ff 	call   *-0xfc(%ebx,%edi,4)
 804b96b:	83 c7 01             	add    $0x1,%edi
 804b96e:	83 c4 10             	add    $0x10,%esp
 804b971:	39 f7                	cmp    %esi,%edi
 804b973:	75 e3                	jne    804b958 <__libc_csu_init+0x38>
 804b975:	83 c4 0c             	add    $0xc,%esp
 804b978:	5b                   	pop    %ebx
 804b979:	5e                   	pop    %esi
 804b97a:	5f                   	pop    %edi
 804b97b:	5d                   	pop    %ebp
 804b97c:	c3                   	ret    
 804b97d:	8d 76 00             	lea    0x0(%esi),%esi

0804b980 <__libc_csu_fini>:
 804b980:	f3 c3                	repz ret 

Disassembly of section .fini:

0804b984 <_fini>:
 804b984:	53                   	push   %ebx
 804b985:	83 ec 08             	sub    $0x8,%esp
 804b988:	e8 83 cd ff ff       	call   8048710 <__x86.get_pc_thunk.bx>
 804b98d:	81 c3 73 26 00 00    	add    $0x2673,%ebx
 804b993:	83 c4 08             	add    $0x8,%esp
 804b996:	5b                   	pop    %ebx
 804b997:	c3                   	ret    
